In archive libPreproc1.a:

AdaptiveFilterAP.o:     file format elf32-littlearm
rw-rw-r-- 1016/1016   7020 Dec 10 16:27 2015 AdaptiveFilterAP.o
architecture: arm, flags 0x00000011:
HAS_RELOC, HAS_SYMS
start address 0x00000000
private flags = 5000000: [Version5 EABI]

Sections:
Idx Name          Size      VMA       LMA       File off  Algn
  0 .text         0000140c  00000000  00000000  00000034  2**2
                  CONTENTS, ALLOC, LOAD, RELOC, READONLY, CODE
  1 .data         00000000  00000000  00000000  00001440  2**0
                  CONTENTS, ALLOC, LOAD, DATA
  2 .bss          00000008  00000000  00000000  00001440  2**2
                  ALLOC
  3 .comment      00000037  00000000  00000000  00001440  2**0
                  CONTENTS, READONLY
  4 .note.GNU-stack 00000000  00000000  00000000  00001477  2**0
                  CONTENTS, READONLY
  5 .ARM.attributes 00000035  00000000  00000000  00001477  2**0
                  CONTENTS, READONLY
SYMBOL TABLE:
00000000 l    df *ABS*	00000000 AdaptiveFilterAP.c
00000000 l    d  .text	00000000 .text
00000000 l    d  .data	00000000 .data
00000000 l    d  .bss	00000000 .bss
00000000 l       .bss	00000000 .LANCHOR0
00000000 l     O .bss	00000004 A.5258
00000004 l     O .bss	00000004 N.5257
00000000 l    d  .note.GNU-stack	00000000 .note.GNU-stack
00000000 l    d  .comment	00000000 .comment
00000000 l    d  .ARM.attributes	00000000 .ARM.attributes
00000000 g     F .text	000001f0 adaptive_filter_ap_init
00000000         *UND*	00000000 aec_calloc
00000000         *UND*	00000000 memset
000001f0 g     F .text	00000142 adaptive_filter_ap_reset
00000334 g     F .text	0000009c adaptive_filter_ap_destroy
00000000         *UND*	00000000 aec_free
000003d0 g     F .text	00000050 adaptive_filter_ap_getFilteredSamples
00000420 g     F .text	0000001c fillInFilterMatrix
0000043c g     F .text	00000174 getCovarianceSuperFast
000005b0 g     F .text	0000018a invertMatrixSuperFast
0000073c g     F .text	0000025c getCovariance
00000998 g     F .text	000006ee invertMatrix
00001088 g     F .text	00000384 adaptive_filter_ap_update



Disassembly of section .text:

00000000 <adaptive_filter_ap_init>:
       0:	e92d 43f8 	stmdb	sp!, {r3, r4, r5, r6, r7, r8, r9, lr}
       4:	2700      	movs	r7, #0
       6:	9c0a      	ldr	r4, [sp, #40]	; 0x28
       8:	463d      	mov	r5, r7
       a:	46b9      	mov	r9, r7
       c:	f8dd 8024 	ldr.w	r8, [sp, #36]	; 0x24
      10:	60e3      	str	r3, [r4, #12]
      12:	f104 0618 	add.w	r6, r4, #24
      16:	9b08      	ldr	r3, [sp, #32]
      18:	80a1      	strh	r1, [r4, #4]
      1a:	2104      	movs	r1, #4
      1c:	8222      	strh	r2, [r4, #16]
      1e:	ed84 0a02 	vstr	s0, [r4, #8]
      22:	63a3      	str	r3, [r4, #56]	; 0x38
      24:	6020      	str	r0, [r4, #0]
      26:	4608      	mov	r0, r1
      28:	64e7      	str	r7, [r4, #76]	; 0x4c
      2a:	f7ff fffe 	bl	0 <aec_calloc>
			2a: R_ARM_THM_CALL	aec_calloc
      2e:	2104      	movs	r1, #4
      30:	62e0      	str	r0, [r4, #44]	; 0x2c
      32:	4608      	mov	r0, r1
      34:	f7ff fffe 	bl	0 <aec_calloc>
			34: R_ARM_THM_CALL	aec_calloc
      38:	2104      	movs	r1, #4
      3a:	64a0      	str	r0, [r4, #72]	; 0x48
      3c:	2040      	movs	r0, #64	; 0x40
      3e:	f7ff fffe 	bl	0 <aec_calloc>
			3e: R_ARM_THM_CALL	aec_calloc
      42:	2104      	movs	r1, #4
      44:	6160      	str	r0, [r4, #20]
      46:	4608      	mov	r0, r1
      48:	f7ff fffe 	bl	0 <aec_calloc>
			48: R_ARM_THM_CALL	aec_calloc
      4c:	4607      	mov	r7, r0
      4e:	6460      	str	r0, [r4, #68]	; 0x44
      50:	2104      	movs	r1, #4
      52:	4608      	mov	r0, r1
      54:	f7ff fffe 	bl	0 <aec_calloc>
			54: R_ARM_THM_CALL	aec_calloc
      58:	5178      	str	r0, [r7, r5]
      5a:	3504      	adds	r5, #4
      5c:	2d10      	cmp	r5, #16
      5e:	f846 9f04 	str.w	r9, [r6, #4]!
      62:	d001      	beq.n	68 <adaptive_filter_ap_init+0x68>
      64:	6c67      	ldr	r7, [r4, #68]	; 0x44
      66:	e7f3      	b.n	50 <adaptive_filter_ap_init+0x50>
      68:	2104      	movs	r1, #4
      6a:	2500      	movs	r5, #0
      6c:	4608      	mov	r0, r1
      6e:	f7ff fffe 	bl	0 <aec_calloc>
			6e: R_ARM_THM_CALL	aec_calloc
      72:	4606      	mov	r6, r0
      74:	6320      	str	r0, [r4, #48]	; 0x30
      76:	2104      	movs	r1, #4
      78:	4608      	mov	r0, r1
      7a:	f7ff fffe 	bl	0 <aec_calloc>
			7a: R_ARM_THM_CALL	aec_calloc
      7e:	5170      	str	r0, [r6, r5]
      80:	3504      	adds	r5, #4
      82:	2d10      	cmp	r5, #16
      84:	d001      	beq.n	8a <adaptive_filter_ap_init+0x8a>
      86:	6b26      	ldr	r6, [r4, #48]	; 0x30
      88:	e7f5      	b.n	76 <adaptive_filter_ap_init+0x76>
      8a:	2104      	movs	r1, #4
      8c:	2500      	movs	r5, #0
      8e:	4608      	mov	r0, r1
      90:	f7ff fffe 	bl	0 <aec_calloc>
			90: R_ARM_THM_CALL	aec_calloc
      94:	4606      	mov	r6, r0
      96:	6360      	str	r0, [r4, #52]	; 0x34
      98:	2104      	movs	r1, #4
      9a:	4608      	mov	r0, r1
      9c:	f7ff fffe 	bl	0 <aec_calloc>
			9c: R_ARM_THM_CALL	aec_calloc
      a0:	5170      	str	r0, [r6, r5]
      a2:	3504      	adds	r5, #4
      a4:	2d10      	cmp	r5, #16
      a6:	d001      	beq.n	ac <adaptive_filter_ap_init+0xac>
      a8:	6b66      	ldr	r6, [r4, #52]	; 0x34
      aa:	e7f5      	b.n	98 <adaptive_filter_ap_init+0x98>
      ac:	2104      	movs	r1, #4
      ae:	4608      	mov	r0, r1
      b0:	f7ff fffe 	bl	0 <aec_calloc>
			b0: R_ARM_THM_CALL	aec_calloc
      b4:	2300      	movs	r3, #0
      b6:	4605      	mov	r5, r0
      b8:	6420      	str	r0, [r4, #64]	; 0x40
      ba:	61a3      	str	r3, [r4, #24]
      bc:	f1b8 0f00 	cmp.w	r8, #0
      c0:	f000 808c 	beq.w	1dc <adaptive_filter_ap_init+0x1dc>
      c4:	f8c4 8014 	str.w	r8, [r4, #20]
      c8:	6c66      	ldr	r6, [r4, #68]	; 0x44
      ca:	2300      	movs	r3, #0
      cc:	6b20      	ldr	r0, [r4, #48]	; 0x30
      ce:	2200      	movs	r2, #0
      d0:	6b61      	ldr	r1, [r4, #52]	; 0x34
      d2:	6ca7      	ldr	r7, [r4, #72]	; 0x48
      d4:	f8d4 e02c 	ldr.w	lr, [r4, #44]	; 0x2c
      d8:	f8d6 9000 	ldr.w	r9, [r6]
      dc:	f8d0 8000 	ldr.w	r8, [r0]
      e0:	f8d1 c000 	ldr.w	ip, [r1]
      e4:	f8ce 3000 	str.w	r3, [lr]
      e8:	603b      	str	r3, [r7, #0]
      ea:	f8c9 3000 	str.w	r3, [r9]
      ee:	f8c8 3000 	str.w	r3, [r8]
      f2:	f8cc 3000 	str.w	r3, [ip]
      f6:	f8c9 3004 	str.w	r3, [r9, #4]
      fa:	f8c8 3004 	str.w	r3, [r8, #4]
      fe:	f8cc 3004 	str.w	r3, [ip, #4]
     102:	f8c9 3008 	str.w	r3, [r9, #8]
     106:	f8c8 3008 	str.w	r3, [r8, #8]
     10a:	f8cc 3008 	str.w	r3, [ip, #8]
     10e:	f8c9 300c 	str.w	r3, [r9, #12]
     112:	f8c8 300c 	str.w	r3, [r8, #12]
     116:	f8cc 300c 	str.w	r3, [ip, #12]
     11a:	61e2      	str	r2, [r4, #28]
     11c:	f8d1 c004 	ldr.w	ip, [r1, #4]
     120:	f8d6 9004 	ldr.w	r9, [r6, #4]
     124:	f8d0 8004 	ldr.w	r8, [r0, #4]
     128:	602b      	str	r3, [r5, #0]
     12a:	f8ce 3004 	str.w	r3, [lr, #4]
     12e:	607b      	str	r3, [r7, #4]
     130:	f8c9 3000 	str.w	r3, [r9]
     134:	f8c8 3000 	str.w	r3, [r8]
     138:	f8cc 3000 	str.w	r3, [ip]
     13c:	f8c9 3004 	str.w	r3, [r9, #4]
     140:	f8c8 3004 	str.w	r3, [r8, #4]
     144:	f8cc 3004 	str.w	r3, [ip, #4]
     148:	f8c9 3008 	str.w	r3, [r9, #8]
     14c:	f8c8 3008 	str.w	r3, [r8, #8]
     150:	f8cc 3008 	str.w	r3, [ip, #8]
     154:	f8c9 300c 	str.w	r3, [r9, #12]
     158:	f8c8 300c 	str.w	r3, [r8, #12]
     15c:	f8cc 300c 	str.w	r3, [ip, #12]
     160:	6222      	str	r2, [r4, #32]
     162:	f8d0 8008 	ldr.w	r8, [r0, #8]
     166:	f8d1 c008 	ldr.w	ip, [r1, #8]
     16a:	f8d6 9008 	ldr.w	r9, [r6, #8]
     16e:	606b      	str	r3, [r5, #4]
     170:	f8ce 3008 	str.w	r3, [lr, #8]
     174:	60bb      	str	r3, [r7, #8]
     176:	f8c9 3000 	str.w	r3, [r9]
     17a:	f8c8 3000 	str.w	r3, [r8]
     17e:	f8cc 3000 	str.w	r3, [ip]
     182:	f8c9 3004 	str.w	r3, [r9, #4]
     186:	f8c8 3004 	str.w	r3, [r8, #4]
     18a:	f8cc 3004 	str.w	r3, [ip, #4]
     18e:	f8c9 3008 	str.w	r3, [r9, #8]
     192:	f8c8 3008 	str.w	r3, [r8, #8]
     196:	f8cc 3008 	str.w	r3, [ip, #8]
     19a:	f8c9 300c 	str.w	r3, [r9, #12]
     19e:	f8c8 300c 	str.w	r3, [r8, #12]
     1a2:	f8cc 300c 	str.w	r3, [ip, #12]
     1a6:	6262      	str	r2, [r4, #36]	; 0x24
     1a8:	68f6      	ldr	r6, [r6, #12]
     1aa:	68c0      	ldr	r0, [r0, #12]
     1ac:	60ab      	str	r3, [r5, #8]
     1ae:	f8ce 300c 	str.w	r3, [lr, #12]
     1b2:	60fb      	str	r3, [r7, #12]
     1b4:	6033      	str	r3, [r6, #0]
     1b6:	6003      	str	r3, [r0, #0]
     1b8:	68c9      	ldr	r1, [r1, #12]
     1ba:	6ba7      	ldr	r7, [r4, #56]	; 0x38
     1bc:	600b      	str	r3, [r1, #0]
     1be:	6073      	str	r3, [r6, #4]
     1c0:	6043      	str	r3, [r0, #4]
     1c2:	604b      	str	r3, [r1, #4]
     1c4:	60b3      	str	r3, [r6, #8]
     1c6:	6083      	str	r3, [r0, #8]
     1c8:	608b      	str	r3, [r1, #8]
     1ca:	60f3      	str	r3, [r6, #12]
     1cc:	60c3      	str	r3, [r0, #12]
     1ce:	4610      	mov	r0, r2
     1d0:	60cb      	str	r3, [r1, #12]
     1d2:	62a2      	str	r2, [r4, #40]	; 0x28
     1d4:	60eb      	str	r3, [r5, #12]
     1d6:	603b      	str	r3, [r7, #0]
     1d8:	e8bd 83f8 	ldmia.w	sp!, {r3, r4, r5, r6, r7, r8, r9, pc}
     1dc:	6960      	ldr	r0, [r4, #20]
     1de:	2800      	cmp	r0, #0
     1e0:	f43f af72 	beq.w	c8 <adaptive_filter_ap_init+0xc8>
     1e4:	4641      	mov	r1, r8
     1e6:	f44f 7280 	mov.w	r2, #256	; 0x100
     1ea:	f7ff fffe 	bl	0 <memset>
			1ea: R_ARM_THM_CALL	memset
     1ee:	e76b      	b.n	c8 <adaptive_filter_ap_init+0xc8>

000001f0 <adaptive_filter_ap_reset>:
     1f0:	e92d 43f8 	stmdb	sp!, {r3, r4, r5, r6, r7, r8, r9, lr}
     1f4:	4604      	mov	r4, r0
     1f6:	2900      	cmp	r1, #0
     1f8:	f000 8092 	beq.w	320 <adaptive_filter_ap_reset+0x130>
     1fc:	6161      	str	r1, [r4, #20]
     1fe:	69a0      	ldr	r0, [r4, #24]
     200:	b120      	cbz	r0, 20c <adaptive_filter_ap_reset+0x1c>
     202:	f44f 7280 	mov.w	r2, #256	; 0x100
     206:	2100      	movs	r1, #0
     208:	f7ff fffe 	bl	0 <memset>
			208: R_ARM_THM_CALL	memset
     20c:	6c66      	ldr	r6, [r4, #68]	; 0x44
     20e:	2300      	movs	r3, #0
     210:	6b25      	ldr	r5, [r4, #48]	; 0x30
     212:	2100      	movs	r1, #0
     214:	6b60      	ldr	r0, [r4, #52]	; 0x34
     216:	6ca7      	ldr	r7, [r4, #72]	; 0x48
     218:	f8d6 9000 	ldr.w	r9, [r6]
     21c:	f8d5 8000 	ldr.w	r8, [r5]
     220:	f8d0 c000 	ldr.w	ip, [r0]
     224:	f8d4 e02c 	ldr.w	lr, [r4, #44]	; 0x2c
     228:	6c22      	ldr	r2, [r4, #64]	; 0x40
     22a:	f8ce 3000 	str.w	r3, [lr]
     22e:	603b      	str	r3, [r7, #0]
     230:	f8c9 3000 	str.w	r3, [r9]
     234:	f8c8 3000 	str.w	r3, [r8]
     238:	f8cc 3000 	str.w	r3, [ip]
     23c:	f8c9 3004 	str.w	r3, [r9, #4]
     240:	f8c8 3004 	str.w	r3, [r8, #4]
     244:	f8cc 3004 	str.w	r3, [ip, #4]
     248:	f8c9 3008 	str.w	r3, [r9, #8]
     24c:	f8c8 3008 	str.w	r3, [r8, #8]
     250:	f8cc 3008 	str.w	r3, [ip, #8]
     254:	f8c9 300c 	str.w	r3, [r9, #12]
     258:	f8c8 300c 	str.w	r3, [r8, #12]
     25c:	f8cc 300c 	str.w	r3, [ip, #12]
     260:	61e1      	str	r1, [r4, #28]
     262:	f8d5 8004 	ldr.w	r8, [r5, #4]
     266:	f8d0 c004 	ldr.w	ip, [r0, #4]
     26a:	f8d6 9004 	ldr.w	r9, [r6, #4]
     26e:	6013      	str	r3, [r2, #0]
     270:	f8ce 3004 	str.w	r3, [lr, #4]
     274:	607b      	str	r3, [r7, #4]
     276:	f8c9 3000 	str.w	r3, [r9]
     27a:	f8c8 3000 	str.w	r3, [r8]
     27e:	f8cc 3000 	str.w	r3, [ip]
     282:	f8c9 3004 	str.w	r3, [r9, #4]
     286:	f8c8 3004 	str.w	r3, [r8, #4]
     28a:	f8cc 3004 	str.w	r3, [ip, #4]
     28e:	f8c9 3008 	str.w	r3, [r9, #8]
     292:	f8c8 3008 	str.w	r3, [r8, #8]
     296:	f8cc 3008 	str.w	r3, [ip, #8]
     29a:	f8c9 300c 	str.w	r3, [r9, #12]
     29e:	f8c8 300c 	str.w	r3, [r8, #12]
     2a2:	f8cc 300c 	str.w	r3, [ip, #12]
     2a6:	6221      	str	r1, [r4, #32]
     2a8:	f8d0 c008 	ldr.w	ip, [r0, #8]
     2ac:	f8d6 9008 	ldr.w	r9, [r6, #8]
     2b0:	f8d5 8008 	ldr.w	r8, [r5, #8]
     2b4:	6053      	str	r3, [r2, #4]
     2b6:	f8ce 3008 	str.w	r3, [lr, #8]
     2ba:	60bb      	str	r3, [r7, #8]
     2bc:	f8c9 3000 	str.w	r3, [r9]
     2c0:	f8c8 3000 	str.w	r3, [r8]
     2c4:	f8cc 3000 	str.w	r3, [ip]
     2c8:	f8c9 3004 	str.w	r3, [r9, #4]
     2cc:	f8c8 3004 	str.w	r3, [r8, #4]
     2d0:	f8cc 3004 	str.w	r3, [ip, #4]
     2d4:	f8c9 3008 	str.w	r3, [r9, #8]
     2d8:	f8c8 3008 	str.w	r3, [r8, #8]
     2dc:	f8cc 3008 	str.w	r3, [ip, #8]
     2e0:	f8c9 300c 	str.w	r3, [r9, #12]
     2e4:	f8c8 300c 	str.w	r3, [r8, #12]
     2e8:	f8cc 300c 	str.w	r3, [ip, #12]
     2ec:	6261      	str	r1, [r4, #36]	; 0x24
     2ee:	68f6      	ldr	r6, [r6, #12]
     2f0:	6093      	str	r3, [r2, #8]
     2f2:	f8ce 300c 	str.w	r3, [lr, #12]
     2f6:	60fb      	str	r3, [r7, #12]
     2f8:	6033      	str	r3, [r6, #0]
     2fa:	68ed      	ldr	r5, [r5, #12]
     2fc:	68c0      	ldr	r0, [r0, #12]
     2fe:	6ba7      	ldr	r7, [r4, #56]	; 0x38
     300:	602b      	str	r3, [r5, #0]
     302:	6003      	str	r3, [r0, #0]
     304:	6073      	str	r3, [r6, #4]
     306:	606b      	str	r3, [r5, #4]
     308:	6043      	str	r3, [r0, #4]
     30a:	60b3      	str	r3, [r6, #8]
     30c:	60ab      	str	r3, [r5, #8]
     30e:	6083      	str	r3, [r0, #8]
     310:	60f3      	str	r3, [r6, #12]
     312:	60eb      	str	r3, [r5, #12]
     314:	60c3      	str	r3, [r0, #12]
     316:	62a1      	str	r1, [r4, #40]	; 0x28
     318:	60d3      	str	r3, [r2, #12]
     31a:	603b      	str	r3, [r7, #0]
     31c:	e8bd 83f8 	ldmia.w	sp!, {r3, r4, r5, r6, r7, r8, r9, pc}
     320:	6940      	ldr	r0, [r0, #20]
     322:	2800      	cmp	r0, #0
     324:	f43f af6b 	beq.w	1fe <adaptive_filter_ap_reset+0xe>
     328:	f44f 7280 	mov.w	r2, #256	; 0x100
     32c:	f7ff fffe 	bl	0 <memset>
			32c: R_ARM_THM_CALL	memset
     330:	e765      	b.n	1fe <adaptive_filter_ap_reset+0xe>
     332:	bf00      	nop

00000334 <adaptive_filter_ap_destroy>:
     334:	b570      	push	{r4, r5, r6, lr}
     336:	4604      	mov	r4, r0
     338:	6ac0      	ldr	r0, [r0, #44]	; 0x2c
     33a:	2500      	movs	r5, #0
     33c:	f7ff fffe 	bl	0 <aec_free>
			33c: R_ARM_THM_CALL	aec_free
     340:	6ca0      	ldr	r0, [r4, #72]	; 0x48
     342:	f7ff fffe 	bl	0 <aec_free>
			342: R_ARM_THM_CALL	aec_free
     346:	6c63      	ldr	r3, [r4, #68]	; 0x44
     348:	5958      	ldr	r0, [r3, r5]
     34a:	3504      	adds	r5, #4
     34c:	f7ff fffe 	bl	0 <aec_free>
			34c: R_ARM_THM_CALL	aec_free
     350:	2d10      	cmp	r5, #16
     352:	d1f8      	bne.n	346 <adaptive_filter_ap_destroy+0x12>
     354:	6c60      	ldr	r0, [r4, #68]	; 0x44
     356:	2500      	movs	r5, #0
     358:	f7ff fffe 	bl	0 <aec_free>
			358: R_ARM_THM_CALL	aec_free
     35c:	6960      	ldr	r0, [r4, #20]
     35e:	f7ff fffe 	bl	0 <aec_free>
			35e: R_ARM_THM_CALL	aec_free
     362:	6b23      	ldr	r3, [r4, #48]	; 0x30
     364:	5958      	ldr	r0, [r3, r5]
     366:	3504      	adds	r5, #4
     368:	f7ff fffe 	bl	0 <aec_free>
			368: R_ARM_THM_CALL	aec_free
     36c:	2d10      	cmp	r5, #16
     36e:	d1f8      	bne.n	362 <adaptive_filter_ap_destroy+0x2e>
     370:	6b20      	ldr	r0, [r4, #48]	; 0x30
     372:	2500      	movs	r5, #0
     374:	f7ff fffe 	bl	0 <aec_free>
			374: R_ARM_THM_CALL	aec_free
     378:	6b63      	ldr	r3, [r4, #52]	; 0x34
     37a:	5958      	ldr	r0, [r3, r5]
     37c:	3504      	adds	r5, #4
     37e:	f7ff fffe 	bl	0 <aec_free>
			37e: R_ARM_THM_CALL	aec_free
     382:	2d10      	cmp	r5, #16
     384:	d1f8      	bne.n	378 <adaptive_filter_ap_destroy+0x44>
     386:	6b60      	ldr	r0, [r4, #52]	; 0x34
     388:	f240 0500 	movw	r5, #0
			388: R_ARM_THM_MOVW_ABS_NC	.LANCHOR0
     38c:	f7ff fffe 	bl	0 <aec_free>
			38c: R_ARM_THM_CALL	aec_free
     390:	f2c0 0500 	movt	r5, #0
			390: R_ARM_THM_MOVT_ABS	.LANCHOR0
     394:	6c20      	ldr	r0, [r4, #64]	; 0x40
     396:	f7ff fffe 	bl	0 <aec_free>
			396: R_ARM_THM_CALL	aec_free
     39a:	6828      	ldr	r0, [r5, #0]
     39c:	b1b8      	cbz	r0, 3ce <adaptive_filter_ap_destroy+0x9a>
     39e:	686b      	ldr	r3, [r5, #4]
     3a0:	2b00      	cmp	r3, #0
     3a2:	dd10      	ble.n	3c6 <adaptive_filter_ap_destroy+0x92>
     3a4:	2400      	movs	r4, #0
     3a6:	462e      	mov	r6, r5
     3a8:	e000      	b.n	3ac <adaptive_filter_ap_destroy+0x78>
     3aa:	6830      	ldr	r0, [r6, #0]
     3ac:	f850 0024 	ldr.w	r0, [r0, r4, lsl #2]
     3b0:	3401      	adds	r4, #1
     3b2:	f7ff fffe 	bl	0 <aec_free>
			3b2: R_ARM_THM_CALL	aec_free
     3b6:	686a      	ldr	r2, [r5, #4]
     3b8:	f240 0300 	movw	r3, #0
			3b8: R_ARM_THM_MOVW_ABS_NC	.LANCHOR0
     3bc:	f2c0 0300 	movt	r3, #0
			3bc: R_ARM_THM_MOVT_ABS	.LANCHOR0
     3c0:	4294      	cmp	r4, r2
     3c2:	dbf2      	blt.n	3aa <adaptive_filter_ap_destroy+0x76>
     3c4:	6818      	ldr	r0, [r3, #0]
     3c6:	f7ff fffe 	bl	0 <aec_free>
			3c6: R_ARM_THM_CALL	aec_free
     3ca:	2300      	movs	r3, #0
     3cc:	602b      	str	r3, [r5, #0]
     3ce:	bd70      	pop	{r4, r5, r6, pc}

000003d0 <adaptive_filter_ap_getFilteredSamples>:
     3d0:	b5f0      	push	{r4, r5, r6, r7, lr}
     3d2:	f101 0618 	add.w	r6, r1, #24
     3d6:	694c      	ldr	r4, [r1, #20]
     3d8:	f100 0c0c 	add.w	ip, r0, #12
     3dc:	f100 0208 	add.w	r2, r0, #8
     3e0:	1d03      	adds	r3, r0, #4
     3e2:	6acf      	ldr	r7, [r1, #44]	; 0x2c
     3e4:	f504 7e80 	add.w	lr, r4, #256	; 0x100
     3e8:	6188      	str	r0, [r1, #24]
     3ea:	6288      	str	r0, [r1, #40]	; 0x28
     3ec:	f107 0510 	add.w	r5, r7, #16
     3f0:	f8c1 c01c 	str.w	ip, [r1, #28]
     3f4:	620a      	str	r2, [r1, #32]
     3f6:	624b      	str	r3, [r1, #36]	; 0x24
     3f8:	f856 2f04 	ldr.w	r2, [r6, #4]!
     3fc:	4673      	mov	r3, lr
     3fe:	eddf 7a07 	vldr	s15, [pc, #28]	; 41c <adaptive_filter_ap_getFilteredSamples+0x4c>
     402:	ed33 7a01 	vldmdb	r3!, {s14}
     406:	ecf2 6a01 	vldmia	r2!, {s13}
     40a:	42a3      	cmp	r3, r4
     40c:	ee46 7a87 	vmla.f32	s15, s13, s14
     410:	d1f7      	bne.n	402 <adaptive_filter_ap_getFilteredSamples+0x32>
     412:	ed65 7a01 	vstmdb	r5!, {s15}
     416:	42bd      	cmp	r5, r7
     418:	d1ee      	bne.n	3f8 <adaptive_filter_ap_getFilteredSamples+0x28>
     41a:	bdf0      	pop	{r4, r5, r6, r7, pc}
     41c:	00000000 	.word	0x00000000

00000420 <fillInFilterMatrix>:
     420:	b410      	push	{r4}
     422:	f100 0208 	add.w	r2, r0, #8
     426:	f100 040c 	add.w	r4, r0, #12
     42a:	1d03      	adds	r3, r0, #4
     42c:	61cc      	str	r4, [r1, #28]
     42e:	6188      	str	r0, [r1, #24]
     430:	6288      	str	r0, [r1, #40]	; 0x28
     432:	620a      	str	r2, [r1, #32]
     434:	624b      	str	r3, [r1, #36]	; 0x24
     436:	f85d 4b04 	ldr.w	r4, [sp], #4
     43a:	4770      	bx	lr

0000043c <getCovarianceSuperFast>:
     43c:	e92d 4ff0 	stmdb	sp!, {r4, r5, r6, r7, r8, r9, sl, fp, lr}
     440:	2b00      	cmp	r3, #0
     442:	9c09      	ldr	r4, [sp, #36]	; 0x24
     444:	9d0a      	ldr	r5, [sp, #40]	; 0x28
     446:	ebc3 0a04 	rsb	sl, r3, r4
     44a:	f340 80ad 	ble.w	5a8 <getCovarianceSuperFast+0x16c>
     44e:	2401      	movs	r4, #1
     450:	f1a3 0609 	sub.w	r6, r3, #9
     454:	40ac      	lsls	r4, r5
     456:	ed9f 2a55 	vldr	s4, [pc, #340]	; 5ac <getCovarianceSuperFast+0x170>
     45a:	f026 0607 	bic.w	r6, r6, #7
     45e:	ea4f 0a8a 	mov.w	sl, sl, lsl #2
     462:	f1a0 0904 	sub.w	r9, r0, #4
     466:	ee07 4a90 	vmov	s15, r4
     46a:	f1a1 0804 	sub.w	r8, r1, #4
     46e:	f1a2 0c04 	sub.w	ip, r2, #4
     472:	3608      	adds	r6, #8
     474:	eef8 7ae7 	vcvt.f32.s32	s15, s15
     478:	f04f 0e00 	mov.w	lr, #0
     47c:	ee00 0aa7 	vmla.f32	s0, s1, s15
     480:	f859 7f04 	ldr.w	r7, [r9, #4]!
     484:	ea4f 058e 	mov.w	r5, lr, lsl #2
     488:	f858 2f04 	ldr.w	r2, [r8, #4]!
     48c:	f85c bf04 	ldr.w	fp, [ip, #4]!
     490:	442f      	add	r7, r5
     492:	4415      	add	r5, r2
     494:	ed97 1a00 	vldr	s2, [r7]
     498:	edd5 7a00 	vldr	s15, [r5]
     49c:	eb0b 040a 	add.w	r4, fp, sl
     4a0:	ee31 1a67 	vsub.f32	s2, s2, s15
     4a4:	eeb5 1a40 	vcmp.f32	s2, #0.0
     4a8:	eef1 fa10 	vmrs	APSR_nzcv, fpscr
     4ac:	bf48      	it	mi
     4ae:	eeb0 1a42 	vmovmi.f32	s2, s4
     4b2:	2b08      	cmp	r3, #8
     4b4:	dd72      	ble.n	59c <getCovarianceSuperFast+0x160>
     4b6:	eddf 7a3d 	vldr	s15, [pc, #244]	; 5ac <getCovarianceSuperFast+0x170>
     4ba:	f10b 0120 	add.w	r1, fp, #32
     4be:	f104 0220 	add.w	r2, r4, #32
     4c2:	2000      	movs	r0, #0
     4c4:	eeb0 7a67 	vmov.f32	s14, s15
     4c8:	ed11 6a08 	vldr	s12, [r1, #-32]	; 0xffffffe0
     4cc:	3008      	adds	r0, #8
     4ce:	ed52 6a08 	vldr	s13, [r2, #-32]	; 0xffffffe0
     4d2:	42b0      	cmp	r0, r6
     4d4:	ed11 5a07 	vldr	s10, [r1, #-28]	; 0xffffffe4
     4d8:	468b      	mov	fp, r1
     4da:	ed52 5a07 	vldr	s11, [r2, #-28]	; 0xffffffe4
     4de:	4614      	mov	r4, r2
     4e0:	ee06 7a06 	vmla.f32	s14, s12, s12
     4e4:	ee46 7aa6 	vmla.f32	s15, s13, s13
     4e8:	ed11 6a06 	vldr	s12, [r1, #-24]	; 0xffffffe8
     4ec:	ed52 6a06 	vldr	s13, [r2, #-24]	; 0xffffffe8
     4f0:	ed51 1a05 	vldr	s3, [r1, #-20]	; 0xffffffec
     4f4:	ed52 2a05 	vldr	s5, [r2, #-20]	; 0xffffffec
     4f8:	ee05 7a05 	vmla.f32	s14, s10, s10
     4fc:	ee45 7aa5 	vmla.f32	s15, s11, s11
     500:	ed11 3a04 	vldr	s6, [r1, #-16]
     504:	ed52 3a04 	vldr	s7, [r2, #-16]
     508:	ed11 4a03 	vldr	s8, [r1, #-12]
     50c:	ed52 4a03 	vldr	s9, [r2, #-12]
     510:	ee06 7a06 	vmla.f32	s14, s12, s12
     514:	ee46 7aa6 	vmla.f32	s15, s13, s13
     518:	ed11 5a02 	vldr	s10, [r1, #-8]
     51c:	ed52 5a02 	vldr	s11, [r2, #-8]
     520:	ed11 6a01 	vldr	s12, [r1, #-4]
     524:	ed52 6a01 	vldr	s13, [r2, #-4]
     528:	ee01 7aa1 	vmla.f32	s14, s3, s3
     52c:	ee42 7aa2 	vmla.f32	s15, s5, s5
     530:	f891 f02c 	pld	[r1, #44]	; 0x2c
     534:	f101 0120 	add.w	r1, r1, #32
     538:	f892 f02c 	pld	[r2, #44]	; 0x2c
     53c:	f102 0220 	add.w	r2, r2, #32
     540:	ee03 7a03 	vmla.f32	s14, s6, s6
     544:	ee43 7aa3 	vmla.f32	s15, s7, s7
     548:	ee04 7a04 	vmla.f32	s14, s8, s8
     54c:	ee44 7aa4 	vmla.f32	s15, s9, s9
     550:	ee05 7a05 	vmla.f32	s14, s10, s10
     554:	ee45 7aa5 	vmla.f32	s15, s11, s11
     558:	ee06 7a06 	vmla.f32	s14, s12, s12
     55c:	ee46 7aa6 	vmla.f32	s15, s13, s13
     560:	d1b2      	bne.n	4c8 <getCovarianceSuperFast+0x8c>
     562:	465a      	mov	r2, fp
     564:	ecb2 6a01 	vldmia	r2!, {s12}
     568:	3001      	adds	r0, #1
     56a:	4283      	cmp	r3, r0
     56c:	ecf4 6a01 	vldmia	r4!, {s13}
     570:	ee06 7a06 	vmla.f32	s14, s12, s12
     574:	ee46 7aa6 	vmla.f32	s15, s13, s13
     578:	dcf4      	bgt.n	564 <getCovarianceSuperFast+0x128>
     57a:	ee71 7a27 	vadd.f32	s15, s2, s15
     57e:	f10e 0e01 	add.w	lr, lr, #1
     582:	ee30 7a07 	vadd.f32	s14, s0, s14
     586:	459e      	cmp	lr, r3
     588:	ee77 7a80 	vadd.f32	s15, s15, s0
     58c:	edc7 7a00 	vstr	s15, [r7]
     590:	ed85 7a00 	vstr	s14, [r5]
     594:	f47f af74 	bne.w	480 <getCovarianceSuperFast+0x44>
     598:	e8bd 8ff0 	ldmia.w	sp!, {r4, r5, r6, r7, r8, r9, sl, fp, pc}
     59c:	eddf 7a03 	vldr	s15, [pc, #12]	; 5ac <getCovarianceSuperFast+0x170>
     5a0:	2000      	movs	r0, #0
     5a2:	eeb0 7a67 	vmov.f32	s14, s15
     5a6:	e7dc      	b.n	562 <getCovarianceSuperFast+0x126>
     5a8:	e8bd 8ff0 	ldmia.w	sp!, {r4, r5, r6, r7, r8, r9, sl, fp, pc}
     5ac:	00000000 	.word	0x00000000

000005b0 <invertMatrixSuperFast>:
     5b0:	e92d 4ff0 	stmdb	sp!, {r4, r5, r6, r7, r8, r9, sl, fp, lr}
     5b4:	f1b2 0800 	subs.w	r8, r2, #0
     5b8:	b087      	sub	sp, #28
     5ba:	9003      	str	r0, [sp, #12]
     5bc:	f340 80b6 	ble.w	72c <invertMatrixSuperFast+0x17c>
     5c0:	f1b8 0f08 	cmp.w	r8, #8
     5c4:	468e      	mov	lr, r1
     5c6:	f340 80b5 	ble.w	734 <invertMatrixSuperFast+0x184>
     5ca:	f1a8 0309 	sub.w	r3, r8, #9
     5ce:	f04f 0c00 	mov.w	ip, #0
     5d2:	f023 0307 	bic.w	r3, r3, #7
     5d6:	46e3      	mov	fp, ip
     5d8:	3308      	adds	r3, #8
     5da:	4682      	mov	sl, r0
     5dc:	9304      	str	r3, [sp, #16]
     5de:	460b      	mov	r3, r1
     5e0:	eef7 7a00 	vmov.f32	s15, #112	; 0x70
     5e4:	f8cd 8014 	str.w	r8, [sp, #20]
     5e8:	9d03      	ldr	r5, [sp, #12]
     5ea:	f10c 0604 	add.w	r6, ip, #4
     5ee:	f8da 4004 	ldr.w	r4, [sl, #4]
     5f2:	f10c 0808 	add.w	r8, ip, #8
     5f6:	f8da 7008 	ldr.w	r7, [sl, #8]
     5fa:	f10c 0128 	add.w	r1, ip, #40	; 0x28
     5fe:	f855 202b 	ldr.w	r2, [r5, fp, lsl #2]
     602:	f10a 0a20 	add.w	sl, sl, #32
     606:	4434      	add	r4, r6
     608:	f85e 002b 	ldr.w	r0, [lr, fp, lsl #2]
     60c:	4447      	add	r7, r8
     60e:	f815 f001 	pld	[r5, r1]
     612:	4462      	add	r2, ip
     614:	f10c 050c 	add.w	r5, ip, #12
     618:	ed92 7a00 	vldr	s14, [r2]
     61c:	4460      	add	r0, ip
     61e:	685a      	ldr	r2, [r3, #4]
     620:	f10b 0b08 	add.w	fp, fp, #8
     624:	f81e f001 	pld	[lr, r1]
     628:	3320      	adds	r3, #32
     62a:	f85a 1c14 	ldr.w	r1, [sl, #-20]
     62e:	ee87 7a87 	vdiv.f32	s14, s15, s14
     632:	4416      	add	r6, r2
     634:	f853 2c18 	ldr.w	r2, [r3, #-24]
     638:	eb01 0905 	add.w	r9, r1, r5
     63c:	4490      	add	r8, r2
     63e:	f853 2c14 	ldr.w	r2, [r3, #-20]
     642:	442a      	add	r2, r5
     644:	f10c 0510 	add.w	r5, ip, #16
     648:	9200      	str	r2, [sp, #0]
     64a:	f85a 2c10 	ldr.w	r2, [sl, #-16]
     64e:	1951      	adds	r1, r2, r5
     650:	f10c 0218 	add.w	r2, ip, #24
     654:	9101      	str	r1, [sp, #4]
     656:	f10c 0114 	add.w	r1, ip, #20
     65a:	ed80 7a00 	vstr	s14, [r0]
     65e:	ed94 7a00 	vldr	s14, [r4]
     662:	f853 0c10 	ldr.w	r0, [r3, #-16]
     666:	f85a 4c0c 	ldr.w	r4, [sl, #-12]
     66a:	ee87 7a87 	vdiv.f32	s14, s15, s14
     66e:	4428      	add	r0, r5
     670:	f853 5c0c 	ldr.w	r5, [r3, #-12]
     674:	440c      	add	r4, r1
     676:	4429      	add	r1, r5
     678:	f10c 051c 	add.w	r5, ip, #28
     67c:	f10c 0c20 	add.w	ip, ip, #32
     680:	ed86 7a00 	vstr	s14, [r6]
     684:	ed97 7a00 	vldr	s14, [r7]
     688:	f85a 6c08 	ldr.w	r6, [sl, #-8]
     68c:	f853 7c08 	ldr.w	r7, [r3, #-8]
     690:	ee87 7a87 	vdiv.f32	s14, s15, s14
     694:	4416      	add	r6, r2
     696:	443a      	add	r2, r7
     698:	f85a 7c04 	ldr.w	r7, [sl, #-4]
     69c:	9202      	str	r2, [sp, #8]
     69e:	9a00      	ldr	r2, [sp, #0]
     6a0:	442f      	add	r7, r5
     6a2:	ed88 7a00 	vstr	s14, [r8]
     6a6:	ed99 7a00 	vldr	s14, [r9]
     6aa:	f853 8c04 	ldr.w	r8, [r3, #-4]
     6ae:	ee87 7a87 	vdiv.f32	s14, s15, s14
     6b2:	4445      	add	r5, r8
     6b4:	ed82 7a00 	vstr	s14, [r2]
     6b8:	9a01      	ldr	r2, [sp, #4]
     6ba:	ed92 7a00 	vldr	s14, [r2]
     6be:	ee87 7a87 	vdiv.f32	s14, s15, s14
     6c2:	ed80 7a00 	vstr	s14, [r0]
     6c6:	ed94 7a00 	vldr	s14, [r4]
     6ca:	9a02      	ldr	r2, [sp, #8]
     6cc:	ee87 7a87 	vdiv.f32	s14, s15, s14
     6d0:	ed81 7a00 	vstr	s14, [r1]
     6d4:	ed96 7a00 	vldr	s14, [r6]
     6d8:	ee87 7a87 	vdiv.f32	s14, s15, s14
     6dc:	ed82 7a00 	vstr	s14, [r2]
     6e0:	ed97 7a00 	vldr	s14, [r7]
     6e4:	9a04      	ldr	r2, [sp, #16]
     6e6:	ee87 7a87 	vdiv.f32	s14, s15, s14
     6ea:	4593      	cmp	fp, r2
     6ec:	ed85 7a00 	vstr	s14, [r5]
     6f0:	f47f af7a 	bne.w	5e8 <invertMatrixSuperFast+0x38>
     6f4:	f8dd 8014 	ldr.w	r8, [sp, #20]
     6f8:	9b03      	ldr	r3, [sp, #12]
     6fa:	ea4f 048b 	mov.w	r4, fp, lsl #2
     6fe:	eeb7 7a00 	vmov.f32	s14, #112	; 0x70
     702:	4423      	add	r3, r4
     704:	4474      	add	r4, lr
     706:	4618      	mov	r0, r3
     708:	f850 2b04 	ldr.w	r2, [r0], #4
     70c:	ebce 0304 	rsb	r3, lr, r4
     710:	f854 1b04 	ldr.w	r1, [r4], #4
     714:	f10b 0b01 	add.w	fp, fp, #1
     718:	45d8      	cmp	r8, fp
     71a:	441a      	add	r2, r3
     71c:	edd2 7a00 	vldr	s15, [r2]
     720:	440b      	add	r3, r1
     722:	eec7 7a27 	vdiv.f32	s15, s14, s15
     726:	edc3 7a00 	vstr	s15, [r3]
     72a:	dced      	bgt.n	708 <invertMatrixSuperFast+0x158>
     72c:	2000      	movs	r0, #0
     72e:	b007      	add	sp, #28
     730:	e8bd 8ff0 	ldmia.w	sp!, {r4, r5, r6, r7, r8, r9, sl, fp, pc}
     734:	f04f 0b00 	mov.w	fp, #0
     738:	e7de      	b.n	6f8 <invertMatrixSuperFast+0x148>
     73a:	bf00      	nop

0000073c <getCovariance>:
     73c:	e92d 4ff0 	stmdb	sp!, {r4, r5, r6, r7, r8, r9, sl, fp, lr}
     740:	b089      	sub	sp, #36	; 0x24
     742:	9c12      	ldr	r4, [sp, #72]	; 0x48
     744:	2b00      	cmp	r3, #0
     746:	4682      	mov	sl, r0
     748:	eba4 0003 	sub.w	r0, r4, r3
     74c:	4605      	mov	r5, r0
     74e:	9002      	str	r0, [sp, #8]
     750:	9813      	ldr	r0, [sp, #76]	; 0x4c
     752:	f340 8106 	ble.w	962 <getCovariance+0x226>
     756:	3a04      	subs	r2, #4
     758:	2401      	movs	r4, #1
     75a:	9207      	str	r2, [sp, #28]
     75c:	fa04 f200 	lsl.w	r2, r4, r0
     760:	f1a3 0709 	sub.w	r7, r3, #9
     764:	ed9f 5a8b 	vldr	s10, [pc, #556]	; 994 <getCovariance+0x258>
     768:	f027 0707 	bic.w	r7, r7, #7
     76c:	2600      	movs	r6, #0
     76e:	ee04 2a90 	vmov	s9, r2
     772:	00aa      	lsls	r2, r5, #2
     774:	3708      	adds	r7, #8
     776:	9600      	str	r6, [sp, #0]
     778:	3904      	subs	r1, #4
     77a:	9203      	str	r2, [sp, #12]
     77c:	f1aa 0204 	sub.w	r2, sl, #4
     780:	9106      	str	r1, [sp, #24]
     782:	9601      	str	r6, [sp, #4]
     784:	9205      	str	r2, [sp, #20]
     786:	9a07      	ldr	r2, [sp, #28]
     788:	9805      	ldr	r0, [sp, #20]
     78a:	f8dd e004 	ldr.w	lr, [sp, #4]
     78e:	f852 8f04 	ldr.w	r8, [r2, #4]!
     792:	4611      	mov	r1, r2
     794:	9207      	str	r2, [sp, #28]
     796:	9a06      	ldr	r2, [sp, #24]
     798:	4689      	mov	r9, r1
     79a:	f852 5f04 	ldr.w	r5, [r2, #4]!
     79e:	9206      	str	r2, [sp, #24]
     7a0:	f850 2f04 	ldr.w	r2, [r0, #4]!
     7a4:	9005      	str	r0, [sp, #20]
     7a6:	9803      	ldr	r0, [sp, #12]
     7a8:	4440      	add	r0, r8
     7aa:	9004      	str	r0, [sp, #16]
     7ac:	9800      	ldr	r0, [sp, #0]
     7ae:	4405      	add	r5, r0
     7b0:	eb02 0c00 	add.w	ip, r2, r0
     7b4:	ed9c 7a00 	vldr	s14, [ip]
     7b8:	2b08      	cmp	r3, #8
     7ba:	edd5 7a00 	vldr	s15, [r5]
     7be:	f859 bb04 	ldr.w	fp, [r9], #4
     7c2:	ee77 7a67 	vsub.f32	s15, s14, s15
     7c6:	edcc 7a00 	vstr	s15, [ip]
     7ca:	eca5 5a01 	vstmia	r5!, {s10}
     7ce:	eddf 7a71 	vldr	s15, [pc, #452]	; 994 <getCovariance+0x258>
     7d2:	f340 80c9 	ble.w	968 <getCovariance+0x22c>
     7d6:	9a03      	ldr	r2, [sp, #12]
     7d8:	4644      	mov	r4, r8
     7da:	4658      	mov	r0, fp
     7dc:	2600      	movs	r6, #0
     7de:	eeb0 7a67 	vmov.f32	s14, s15
     7e2:	eb0b 0102 	add.w	r1, fp, r2
     7e6:	9a04      	ldr	r2, [sp, #16]
     7e8:	ed94 6a00 	vldr	s12, [r4]
     7ec:	3608      	adds	r6, #8
     7ee:	edd0 6a00 	vldr	s13, [r0]
     7f2:	42be      	cmp	r6, r7
     7f4:	f894 f02c 	pld	[r4, #44]	; 0x2c
     7f8:	f104 0420 	add.w	r4, r4, #32
     7fc:	f890 f02c 	pld	[r0, #44]	; 0x2c
     800:	f100 0020 	add.w	r0, r0, #32
     804:	f892 f02c 	pld	[r2, #44]	; 0x2c
     808:	f102 0220 	add.w	r2, r2, #32
     80c:	ee46 7a26 	vmla.f32	s15, s12, s13
     810:	f891 f02c 	pld	[r1, #44]	; 0x2c
     814:	f101 0120 	add.w	r1, r1, #32
     818:	ed45 7a01 	vstr	s15, [r5, #-4]
     81c:	ed14 4a07 	vldr	s8, [r4, #-28]	; 0xffffffe4
     820:	ed50 5a07 	vldr	s11, [r0, #-28]	; 0xffffffe4
     824:	ed12 6a08 	vldr	s12, [r2, #-32]	; 0xffffffe0
     828:	ed51 6a08 	vldr	s13, [r1, #-32]	; 0xffffffe0
     82c:	ee44 7a25 	vmla.f32	s15, s8, s11
     830:	ee06 7a26 	vmla.f32	s14, s12, s13
     834:	ed45 7a01 	vstr	s15, [r5, #-4]
     838:	ed14 4a06 	vldr	s8, [r4, #-24]	; 0xffffffe8
     83c:	ed50 5a06 	vldr	s11, [r0, #-24]	; 0xffffffe8
     840:	ed12 6a07 	vldr	s12, [r2, #-28]	; 0xffffffe4
     844:	ed51 6a07 	vldr	s13, [r1, #-28]	; 0xffffffe4
     848:	ee44 7a25 	vmla.f32	s15, s8, s11
     84c:	ee06 7a26 	vmla.f32	s14, s12, s13
     850:	ed45 7a01 	vstr	s15, [r5, #-4]
     854:	ed14 4a05 	vldr	s8, [r4, #-20]	; 0xffffffec
     858:	ed50 5a05 	vldr	s11, [r0, #-20]	; 0xffffffec
     85c:	ed12 6a06 	vldr	s12, [r2, #-24]	; 0xffffffe8
     860:	ed51 6a06 	vldr	s13, [r1, #-24]	; 0xffffffe8
     864:	ee44 7a25 	vmla.f32	s15, s8, s11
     868:	ee06 7a26 	vmla.f32	s14, s12, s13
     86c:	ed45 7a01 	vstr	s15, [r5, #-4]
     870:	ed14 4a04 	vldr	s8, [r4, #-16]
     874:	ed50 5a04 	vldr	s11, [r0, #-16]
     878:	ed12 6a05 	vldr	s12, [r2, #-20]	; 0xffffffec
     87c:	ed51 6a05 	vldr	s13, [r1, #-20]	; 0xffffffec
     880:	ee44 7a25 	vmla.f32	s15, s8, s11
     884:	ee06 7a26 	vmla.f32	s14, s12, s13
     888:	ed45 7a01 	vstr	s15, [r5, #-4]
     88c:	ed14 4a03 	vldr	s8, [r4, #-12]
     890:	ed50 5a03 	vldr	s11, [r0, #-12]
     894:	ed12 6a04 	vldr	s12, [r2, #-16]
     898:	ed51 6a04 	vldr	s13, [r1, #-16]
     89c:	ee44 7a25 	vmla.f32	s15, s8, s11
     8a0:	ee06 7a26 	vmla.f32	s14, s12, s13
     8a4:	ed45 7a01 	vstr	s15, [r5, #-4]
     8a8:	ed12 4a03 	vldr	s8, [r2, #-12]
     8ac:	ed51 5a03 	vldr	s11, [r1, #-12]
     8b0:	ed14 6a02 	vldr	s12, [r4, #-8]
     8b4:	ed50 6a02 	vldr	s13, [r0, #-8]
     8b8:	ee04 7a25 	vmla.f32	s14, s8, s11
     8bc:	ee46 7a26 	vmla.f32	s15, s12, s13
     8c0:	ed45 7a01 	vstr	s15, [r5, #-4]
     8c4:	ed14 4a01 	vldr	s8, [r4, #-4]
     8c8:	ed50 5a01 	vldr	s11, [r0, #-4]
     8cc:	ed12 6a02 	vldr	s12, [r2, #-8]
     8d0:	ed51 6a02 	vldr	s13, [r1, #-8]
     8d4:	ee44 7a25 	vmla.f32	s15, s8, s11
     8d8:	ee06 7a26 	vmla.f32	s14, s12, s13
     8dc:	ed45 7a01 	vstr	s15, [r5, #-4]
     8e0:	ed12 6a01 	vldr	s12, [r2, #-4]
     8e4:	ed51 6a01 	vldr	s13, [r1, #-4]
     8e8:	ee06 7a26 	vmla.f32	s14, s12, s13
     8ec:	f47f af7c 	bne.w	7e8 <getCovariance+0xac>
     8f0:	9a02      	ldr	r2, [sp, #8]
     8f2:	00b1      	lsls	r1, r6, #2
     8f4:	eb0b 0401 	add.w	r4, fp, r1
     8f8:	4441      	add	r1, r8
     8fa:	4432      	add	r2, r6
     8fc:	0092      	lsls	r2, r2, #2
     8fe:	eb08 0002 	add.w	r0, r8, r2
     902:	4493      	add	fp, r2
     904:	ecb1 6a01 	vldmia	r1!, {s12}
     908:	3601      	adds	r6, #1
     90a:	ecf4 6a01 	vldmia	r4!, {s13}
     90e:	42b3      	cmp	r3, r6
     910:	ee46 7a26 	vmla.f32	s15, s12, s13
     914:	ed45 7a01 	vstr	s15, [r5, #-4]
     918:	ecb0 6a01 	vldmia	r0!, {s12}
     91c:	ecfb 6a01 	vldmia	fp!, {s13}
     920:	ee06 7a26 	vmla.f32	s14, s12, s13
     924:	dcee      	bgt.n	904 <getCovariance+0x1c8>
     926:	eddc 7a00 	vldr	s15, [ip]
     92a:	9a01      	ldr	r2, [sp, #4]
     92c:	ee37 7a27 	vadd.f32	s14, s14, s15
     930:	4572      	cmp	r2, lr
     932:	ecac 7a01 	vstmia	ip!, {s14}
     936:	d01b      	beq.n	970 <getCovariance+0x234>
     938:	f85a 202e 	ldr.w	r2, [sl, lr, lsl #2]
     93c:	9900      	ldr	r1, [sp, #0]
     93e:	440a      	add	r2, r1
     940:	ed82 7a00 	vstr	s14, [r2]
     944:	f10e 0e01 	add.w	lr, lr, #1
     948:	4573      	cmp	r3, lr
     94a:	f73f af33 	bgt.w	7b4 <getCovariance+0x78>
     94e:	9a01      	ldr	r2, [sp, #4]
     950:	9900      	ldr	r1, [sp, #0]
     952:	3201      	adds	r2, #1
     954:	429a      	cmp	r2, r3
     956:	f101 0104 	add.w	r1, r1, #4
     95a:	9201      	str	r2, [sp, #4]
     95c:	9100      	str	r1, [sp, #0]
     95e:	f47f af12 	bne.w	786 <getCovariance+0x4a>
     962:	b009      	add	sp, #36	; 0x24
     964:	e8bd 8ff0 	ldmia.w	sp!, {r4, r5, r6, r7, r8, r9, sl, fp, pc}
     968:	2600      	movs	r6, #0
     96a:	eeb0 7a67 	vmov.f32	s14, s15
     96e:	e7bf      	b.n	8f0 <getCovariance+0x1b4>
     970:	eef8 7ae4 	vcvt.f32.s32	s15, s9
     974:	eef0 6a40 	vmov.f32	s13, s0
     978:	ee47 6aa0 	vmla.f32	s13, s15, s1
     97c:	ee37 7a26 	vadd.f32	s14, s14, s13
     980:	ed0c 7a01 	vstr	s14, [ip, #-4]
     984:	ed15 7a01 	vldr	s14, [r5, #-4]
     988:	ee76 7a87 	vadd.f32	s15, s13, s14
     98c:	ed45 7a01 	vstr	s15, [r5, #-4]
     990:	e7d8      	b.n	944 <getCovariance+0x208>
     992:	bf00      	nop
     994:	00000000 	.word	0x00000000

00000998 <invertMatrix>:
     998:	f240 0300 	movw	r3, #0
			998: R_ARM_THM_MOVW_ABS_NC	.LANCHOR0
     99c:	e92d 4ff0 	stmdb	sp!, {r4, r5, r6, r7, r8, r9, sl, fp, lr}
     9a0:	f2c0 0300 	movt	r3, #0
			9a0: R_ARM_THM_MOVT_ABS	.LANCHOR0
     9a4:	b08d      	sub	sp, #52	; 0x34
     9a6:	fab0 f480 	clz	r4, r0
     9aa:	4690      	mov	r8, r2
     9ac:	9309      	str	r3, [sp, #36]	; 0x24
     9ae:	0964      	lsrs	r4, r4, #5
     9b0:	685b      	ldr	r3, [r3, #4]
     9b2:	4606      	mov	r6, r0
     9b4:	910a      	str	r1, [sp, #40]	; 0x28
     9b6:	4293      	cmp	r3, r2
     9b8:	bf0c      	ite	eq
     9ba:	4622      	moveq	r2, r4
     9bc:	f044 0201 	orrne.w	r2, r4, #1
     9c0:	2a00      	cmp	r2, #0
     9c2:	f040 831d 	bne.w	1000 <invertMatrix+0x668>
     9c6:	2b00      	cmp	r3, #0
     9c8:	469b      	mov	fp, r3
     9ca:	dd5d      	ble.n	a88 <invertMatrix+0xf0>
     9cc:	9b09      	ldr	r3, [sp, #36]	; 0x24
     9ce:	f1ab 0409 	sub.w	r4, fp, #9
     9d2:	ea4f 098b 	mov.w	r9, fp, lsl #2
     9d6:	f024 0407 	bic.w	r4, r4, #7
     9da:	3408      	adds	r4, #8
     9dc:	681d      	ldr	r5, [r3, #0]
     9de:	f04f 5a7e 	mov.w	sl, #1065353216	; 0x3f800000
     9e2:	f04f 0800 	mov.w	r8, #0
     9e6:	ebc5 0709 	rsb	r7, r5, r9
     9ea:	f1bb 0f08 	cmp.w	fp, #8
     9ee:	6828      	ldr	r0, [r5, #0]
     9f0:	f856 e028 	ldr.w	lr, [r6, r8, lsl #2]
     9f4:	bfd8      	it	le
     9f6:	2100      	movle	r1, #0
     9f8:	dd2b      	ble.n	a52 <invertMatrix+0xba>
     9fa:	f10e 0364 	add.w	r3, lr, #100	; 0x64
     9fe:	f100 021c 	add.w	r2, r0, #28
     a02:	2100      	movs	r1, #0
     a04:	f853 cc64 	ldr.w	ip, [r3, #-100]
     a08:	3108      	adds	r1, #8
     a0a:	f893 f000 	pld	[r3]
     a0e:	42a1      	cmp	r1, r4
     a10:	f103 0320 	add.w	r3, r3, #32
     a14:	f842 cc1c 	str.w	ip, [r2, #-28]
     a18:	f853 cc80 	ldr.w	ip, [r3, #-128]
     a1c:	f842 cc18 	str.w	ip, [r2, #-24]
     a20:	f853 cc7c 	ldr.w	ip, [r3, #-124]
     a24:	f842 cc14 	str.w	ip, [r2, #-20]
     a28:	f853 cc78 	ldr.w	ip, [r3, #-120]
     a2c:	f842 cc10 	str.w	ip, [r2, #-16]
     a30:	f853 cc74 	ldr.w	ip, [r3, #-116]
     a34:	f842 cc0c 	str.w	ip, [r2, #-12]
     a38:	f853 cc70 	ldr.w	ip, [r3, #-112]
     a3c:	f842 cc08 	str.w	ip, [r2, #-8]
     a40:	f853 cc6c 	ldr.w	ip, [r3, #-108]
     a44:	f842 cc04 	str.w	ip, [r2, #-4]
     a48:	f853 cc68 	ldr.w	ip, [r3, #-104]
     a4c:	f842 cb20 	str.w	ip, [r2], #32
     a50:	d1d8      	bne.n	a04 <invertMatrix+0x6c>
     a52:	008b      	lsls	r3, r1, #2
     a54:	eb0e 0203 	add.w	r2, lr, r3
     a58:	4403      	add	r3, r0
     a5a:	f852 eb04 	ldr.w	lr, [r2], #4
     a5e:	3101      	adds	r1, #1
     a60:	458b      	cmp	fp, r1
     a62:	f843 eb04 	str.w	lr, [r3], #4
     a66:	dcf8      	bgt.n	a5a <invertMatrix+0xc2>
     a68:	4448      	add	r0, r9
     a6a:	464a      	mov	r2, r9
     a6c:	2100      	movs	r1, #0
     a6e:	f108 0801 	add.w	r8, r8, #1
     a72:	f7ff fffe 	bl	0 <memset>
			a72: R_ARM_THM_CALL	memset
     a76:	682b      	ldr	r3, [r5, #0]
     a78:	45d8      	cmp	r8, fp
     a7a:	442b      	add	r3, r5
     a7c:	f105 0504 	add.w	r5, r5, #4
     a80:	443b      	add	r3, r7
     a82:	f8c3 a000 	str.w	sl, [r3]
     a86:	d1b0      	bne.n	9ea <invertMatrix+0x52>
     a88:	9b09      	ldr	r3, [sp, #36]	; 0x24
     a8a:	f1ab 0206 	sub.w	r2, fp, #6
     a8e:	ea4f 0e4b 	mov.w	lr, fp, lsl #1
     a92:	46d8      	mov	r8, fp
     a94:	f8cd b010 	str.w	fp, [sp, #16]
     a98:	2700      	movs	r7, #0
     a9a:	681b      	ldr	r3, [r3, #0]
     a9c:	2106      	movs	r1, #6
     a9e:	f2c8 0100 	movt	r1, #32768	; 0x8000
     aa2:	9208      	str	r2, [sp, #32]
     aa4:	ed9f 3ad3 	vldr	s6, [pc, #844]	; df4 <invertMatrix+0x45c>
     aa8:	f04f 0a50 	mov.w	sl, #80	; 0x50
     aac:	3b04      	subs	r3, #4
     aae:	9202      	str	r2, [sp, #8]
     ab0:	9303      	str	r3, [sp, #12]
     ab2:	f10b 33ff 	add.w	r3, fp, #4294967295	; 0xffffffff
     ab6:	9306      	str	r3, [sp, #24]
     ab8:	2302      	movs	r3, #2
     aba:	469b      	mov	fp, r3
     abc:	9b06      	ldr	r3, [sp, #24]
     abe:	eef7 2a00 	vmov.f32	s5, #112	; 0x70
     ac2:	9100      	str	r1, [sp, #0]
     ac4:	429f      	cmp	r7, r3
     ac6:	f8cd e01c 	str.w	lr, [sp, #28]
     aca:	f280 80fc 	bge.w	cc6 <invertMatrix+0x32e>
     ace:	9b03      	ldr	r3, [sp, #12]
     ad0:	f1aa 0950 	sub.w	r9, sl, #80	; 0x50
     ad4:	3701      	adds	r7, #1
     ad6:	4547      	cmp	r7, r8
     ad8:	f853 cf04 	ldr.w	ip, [r3, #4]!
     adc:	9303      	str	r3, [sp, #12]
     ade:	eb0c 0309 	add.w	r3, ip, r9
     ae2:	edd3 7a00 	vldr	s15, [r3]
     ae6:	edc3 2a00 	vstr	s5, [r3]
     aea:	eec2 7aa7 	vdiv.f32	s15, s5, s15
     aee:	dc53      	bgt.n	b98 <invertMatrix+0x200>
     af0:	9b00      	ldr	r3, [sp, #0]
     af2:	9802      	ldr	r0, [sp, #8]
     af4:	4598      	cmp	r8, r3
     af6:	bfac      	ite	ge
     af8:	2301      	movge	r3, #1
     afa:	2300      	movlt	r3, #0
     afc:	4583      	cmp	fp, r0
     afe:	bfa8      	it	ge
     b00:	2300      	movge	r3, #0
     b02:	2b00      	cmp	r3, #0
     b04:	f000 8279 	beq.w	ffa <invertMatrix+0x662>
     b08:	f10a 0318 	add.w	r3, sl, #24
     b0c:	463a      	mov	r2, r7
     b0e:	4463      	add	r3, ip
     b10:	ed53 3a19 	vldr	s7, [r3, #-100]	; 0xffffff9c
     b14:	3208      	adds	r2, #8
     b16:	ed13 4a18 	vldr	s8, [r3, #-96]	; 0xffffffa0
     b1a:	1c51      	adds	r1, r2, #1
     b1c:	ed53 4a17 	vldr	s9, [r3, #-92]	; 0xffffffa4
     b20:	4288      	cmp	r0, r1
     b22:	ed13 5a16 	vldr	s10, [r3, #-88]	; 0xffffffa8
     b26:	ed53 5a15 	vldr	s11, [r3, #-84]	; 0xffffffac
     b2a:	ed13 6a14 	vldr	s12, [r3, #-80]	; 0xffffffb0
     b2e:	ed53 6a13 	vldr	s13, [r3, #-76]	; 0xffffffb4
     b32:	ed13 7a12 	vldr	s14, [r3, #-72]	; 0xffffffb8
     b36:	ee63 3aa7 	vmul.f32	s7, s7, s15
     b3a:	ee24 4a27 	vmul.f32	s8, s8, s15
     b3e:	ee64 4aa7 	vmul.f32	s9, s9, s15
     b42:	ee25 5a27 	vmul.f32	s10, s10, s15
     b46:	ee65 5aa7 	vmul.f32	s11, s11, s15
     b4a:	ee26 6a27 	vmul.f32	s12, s12, s15
     b4e:	ee66 6aa7 	vmul.f32	s13, s13, s15
     b52:	ee27 7a27 	vmul.f32	s14, s14, s15
     b56:	f893 f000 	pld	[r3]
     b5a:	f103 0320 	add.w	r3, r3, #32
     b5e:	ed43 3a21 	vstr	s7, [r3, #-132]	; 0xffffff7c
     b62:	ed03 4a20 	vstr	s8, [r3, #-128]	; 0xffffff80
     b66:	ed43 4a1f 	vstr	s9, [r3, #-124]	; 0xffffff84
     b6a:	ed03 5a1e 	vstr	s10, [r3, #-120]	; 0xffffff88
     b6e:	ed43 5a1d 	vstr	s11, [r3, #-116]	; 0xffffff8c
     b72:	ed03 6a1c 	vstr	s12, [r3, #-112]	; 0xffffff90
     b76:	ed43 6a1b 	vstr	s13, [r3, #-108]	; 0xffffff94
     b7a:	ed03 7a1a 	vstr	s14, [r3, #-104]	; 0xffffff98
     b7e:	dcc7      	bgt.n	b10 <invertMatrix+0x178>
     b80:	eb0c 0282 	add.w	r2, ip, r2, lsl #2
     b84:	ed92 7a00 	vldr	s14, [r2]
     b88:	4588      	cmp	r8, r1
     b8a:	f101 0101 	add.w	r1, r1, #1
     b8e:	ee27 7a27 	vmul.f32	s14, s14, s15
     b92:	eca2 7a01 	vstmia	r2!, {s14}
     b96:	daf5      	bge.n	b84 <invertMatrix+0x1ec>
     b98:	9b04      	ldr	r3, [sp, #16]
     b9a:	429f      	cmp	r7, r3
     b9c:	f280 8086 	bge.w	cac <invertMatrix+0x314>
     ba0:	19dd      	adds	r5, r3, r7
     ba2:	f8cd 8014 	str.w	r8, [sp, #20]
     ba6:	9b08      	ldr	r3, [sp, #32]
     ba8:	f8dd e00c 	ldr.w	lr, [sp, #12]
     bac:	f8dd 801c 	ldr.w	r8, [sp, #28]
     bb0:	19de      	adds	r6, r3, r7
     bb2:	eb0c 030a 	add.w	r3, ip, sl
     bb6:	9301      	str	r3, [sp, #4]
     bb8:	f85e 4f04 	ldr.w	r4, [lr, #4]!
     bbc:	42af      	cmp	r7, r5
     bbe:	eb04 0309 	add.w	r3, r4, r9
     bc2:	edd3 7a00 	vldr	s15, [r3]
     bc6:	ed83 3a00 	vstr	s6, [r3]
     bca:	dc69      	bgt.n	ca0 <invertMatrix+0x308>
     bcc:	9b00      	ldr	r3, [sp, #0]
     bce:	429d      	cmp	r5, r3
     bd0:	bfac      	ite	ge
     bd2:	2301      	movge	r3, #1
     bd4:	2300      	movlt	r3, #0
     bd6:	45b3      	cmp	fp, r6
     bd8:	bfa8      	it	ge
     bda:	2300      	movge	r3, #0
     bdc:	2b00      	cmp	r3, #0
     bde:	f000 81ff 	beq.w	fe0 <invertMatrix+0x648>
     be2:	9a01      	ldr	r2, [sp, #4]
     be4:	eb04 030a 	add.w	r3, r4, sl
     be8:	4639      	mov	r1, r7
     bea:	ed12 7a13 	vldr	s14, [r2, #-76]	; 0xffffffb4
     bee:	3108      	adds	r1, #8
     bf0:	ed53 3a13 	vldr	s7, [r3, #-76]	; 0xffffffb4
     bf4:	1c48      	adds	r0, r1, #1
     bf6:	f892 f000 	pld	[r2]
     bfa:	4286      	cmp	r6, r0
     bfc:	ed13 4a12 	vldr	s8, [r3, #-72]	; 0xffffffb8
     c00:	f102 0220 	add.w	r2, r2, #32
     c04:	ed53 4a11 	vldr	s9, [r3, #-68]	; 0xffffffbc
     c08:	ee47 3ac7 	vmls.f32	s7, s15, s14
     c0c:	ed13 5a10 	vldr	s10, [r3, #-64]	; 0xffffffc0
     c10:	ed53 5a0f 	vldr	s11, [r3, #-60]	; 0xffffffc4
     c14:	ed13 6a0e 	vldr	s12, [r3, #-56]	; 0xffffffc8
     c18:	ed53 6a0d 	vldr	s13, [r3, #-52]	; 0xffffffcc
     c1c:	ed13 7a0c 	vldr	s14, [r3, #-48]	; 0xffffffd0
     c20:	f893 f000 	pld	[r3]
     c24:	f103 0320 	add.w	r3, r3, #32
     c28:	ed43 3a1b 	vstr	s7, [r3, #-108]	; 0xffffff94
     c2c:	ed52 3a1a 	vldr	s7, [r2, #-104]	; 0xffffff98
     c30:	ee07 4ae3 	vmls.f32	s8, s15, s7
     c34:	ed03 4a1a 	vstr	s8, [r3, #-104]	; 0xffffff98
     c38:	ed12 4a19 	vldr	s8, [r2, #-100]	; 0xffffff9c
     c3c:	ee47 4ac4 	vmls.f32	s9, s15, s8
     c40:	ed43 4a19 	vstr	s9, [r3, #-100]	; 0xffffff9c
     c44:	ed52 4a18 	vldr	s9, [r2, #-96]	; 0xffffffa0
     c48:	ee07 5ae4 	vmls.f32	s10, s15, s9
     c4c:	ed03 5a18 	vstr	s10, [r3, #-96]	; 0xffffffa0
     c50:	ed12 5a17 	vldr	s10, [r2, #-92]	; 0xffffffa4
     c54:	ee47 5ac5 	vmls.f32	s11, s15, s10
     c58:	ed43 5a17 	vstr	s11, [r3, #-92]	; 0xffffffa4
     c5c:	ed52 5a16 	vldr	s11, [r2, #-88]	; 0xffffffa8
     c60:	ee07 6ae5 	vmls.f32	s12, s15, s11
     c64:	ed03 6a16 	vstr	s12, [r3, #-88]	; 0xffffffa8
     c68:	ed12 6a15 	vldr	s12, [r2, #-84]	; 0xffffffac
     c6c:	ee47 6ac6 	vmls.f32	s13, s15, s12
     c70:	ed43 6a15 	vstr	s13, [r3, #-84]	; 0xffffffac
     c74:	ed52 6a14 	vldr	s13, [r2, #-80]	; 0xffffffb0
     c78:	ee07 7ae6 	vmls.f32	s14, s15, s13
     c7c:	ed03 7a14 	vstr	s14, [r3, #-80]	; 0xffffffb0
     c80:	dcb3      	bgt.n	bea <invertMatrix+0x252>
     c82:	0089      	lsls	r1, r1, #2
     c84:	440c      	add	r4, r1
     c86:	4461      	add	r1, ip
     c88:	ecf1 6a01 	vldmia	r1!, {s13}
     c8c:	4285      	cmp	r5, r0
     c8e:	ed94 7a00 	vldr	s14, [r4]
     c92:	f100 0001 	add.w	r0, r0, #1
     c96:	ee06 7ae7 	vmls.f32	s14, s13, s15
     c9a:	eca4 7a01 	vstmia	r4!, {s14}
     c9e:	daf3      	bge.n	c88 <invertMatrix+0x2f0>
     ca0:	3501      	adds	r5, #1
     ca2:	3601      	adds	r6, #1
     ca4:	4545      	cmp	r5, r8
     ca6:	d187      	bne.n	bb8 <invertMatrix+0x220>
     ca8:	f8dd 8014 	ldr.w	r8, [sp, #20]
     cac:	9b02      	ldr	r3, [sp, #8]
     cae:	f108 0801 	add.w	r8, r8, #1
     cb2:	f10b 0b01 	add.w	fp, fp, #1
     cb6:	f10a 0a04 	add.w	sl, sl, #4
     cba:	3301      	adds	r3, #1
     cbc:	9302      	str	r3, [sp, #8]
     cbe:	9b06      	ldr	r3, [sp, #24]
     cc0:	429f      	cmp	r7, r3
     cc2:	f6ff af04 	blt.w	ace <invertMatrix+0x136>
     cc6:	2b00      	cmp	r3, #0
     cc8:	f8dd b010 	ldr.w	fp, [sp, #16]
     ccc:	f8dd e01c 	ldr.w	lr, [sp, #28]
     cd0:	f340 8121 	ble.w	f16 <invertMatrix+0x57e>
     cd4:	9b09      	ldr	r3, [sp, #36]	; 0x24
     cd6:	f64f 72fc 	movw	r2, #65532	; 0xfffc
     cda:	f6cf 72ff 	movt	r2, #65535	; 0xffff
     cde:	f64f 71f8 	movw	r1, #65528	; 0xfff8
     ce2:	f64f 70f9 	movw	r0, #65529	; 0xfff9
     ce6:	ea4f 04cb 	mov.w	r4, fp, lsl #3
     cea:	681b      	ldr	r3, [r3, #0]
     cec:	f10e 37ff 	add.w	r7, lr, #4294967295	; 0xffffffff
     cf0:	eeb7 3a00 	vmov.f32	s6, #112	; 0x70
     cf4:	f1ae 0a02 	sub.w	sl, lr, #2
     cf8:	f6c7 71ff 	movt	r1, #32767	; 0x7fff
     cfc:	f6c7 70ff 	movt	r0, #32767	; 0x7fff
     d00:	1ad2      	subs	r2, r2, r3
     d02:	f8dd c018 	ldr.w	ip, [sp, #24]
     d06:	eb03 038b 	add.w	r3, r3, fp, lsl #2
     d0a:	9401      	str	r4, [sp, #4]
     d0c:	9205      	str	r2, [sp, #20]
     d0e:	9303      	str	r3, [sp, #12]
     d10:	f10b 0306 	add.w	r3, fp, #6
     d14:	9107      	str	r1, [sp, #28]
     d16:	9008      	str	r0, [sp, #32]
     d18:	9302      	str	r3, [sp, #8]
     d1a:	f8cd b018 	str.w	fp, [sp, #24]
     d1e:	f8cd e02c 	str.w	lr, [sp, #44]	; 0x2c
     d22:	9a03      	ldr	r2, [sp, #12]
     d24:	45bc      	cmp	ip, r7
     d26:	9b05      	ldr	r3, [sp, #20]
     d28:	4619      	mov	r1, r3
     d2a:	4613      	mov	r3, r2
     d2c:	f853 8d04 	ldr.w	r8, [r3, #-4]!
     d30:	eb01 0902 	add.w	r9, r1, r2
     d34:	9303      	str	r3, [sp, #12]
     d36:	eb08 0309 	add.w	r3, r8, r9
     d3a:	edd3 7a00 	vldr	s15, [r3]
     d3e:	ed83 3a00 	vstr	s6, [r3]
     d42:	eec3 7a27 	vdiv.f32	s15, s6, s15
     d46:	da57      	bge.n	df8 <invertMatrix+0x460>
     d48:	9802      	ldr	r0, [sp, #8]
     d4a:	9a07      	ldr	r2, [sp, #28]
     d4c:	4582      	cmp	sl, r0
     d4e:	4603      	mov	r3, r0
     d50:	bfcc      	ite	gt
     d52:	2301      	movgt	r3, #1
     d54:	2300      	movle	r3, #0
     d56:	4594      	cmp	ip, r2
     d58:	bfc8      	it	gt
     d5a:	2300      	movgt	r3, #0
     d5c:	2b00      	cmp	r3, #0
     d5e:	f000 8145 	beq.w	fec <invertMatrix+0x654>
     d62:	9b01      	ldr	r3, [sp, #4]
     d64:	4639      	mov	r1, r7
     d66:	4443      	add	r3, r8
     d68:	ed13 7a08 	vldr	s14, [r3, #-32]	; 0xffffffe0
     d6c:	3908      	subs	r1, #8
     d6e:	ed53 3a01 	vldr	s7, [r3, #-4]
     d72:	1e4a      	subs	r2, r1, #1
     d74:	ed13 4a02 	vldr	s8, [r3, #-8]
     d78:	4282      	cmp	r2, r0
     d7a:	ed53 4a03 	vldr	s9, [r3, #-12]
     d7e:	ed13 5a04 	vldr	s10, [r3, #-16]
     d82:	ed53 5a05 	vldr	s11, [r3, #-20]	; 0xffffffec
     d86:	ed13 6a06 	vldr	s12, [r3, #-24]	; 0xffffffe8
     d8a:	ed53 6a07 	vldr	s13, [r3, #-28]	; 0xffffffe4
     d8e:	ee27 7a27 	vmul.f32	s14, s14, s15
     d92:	ee63 3aa7 	vmul.f32	s7, s7, s15
     d96:	ee24 4a27 	vmul.f32	s8, s8, s15
     d9a:	ee64 4aa7 	vmul.f32	s9, s9, s15
     d9e:	ee25 5a27 	vmul.f32	s10, s10, s15
     da2:	ee65 5aa7 	vmul.f32	s11, s11, s15
     da6:	ee26 6a27 	vmul.f32	s12, s12, s15
     daa:	ee66 6aa7 	vmul.f32	s13, s13, s15
     dae:	ee17 4a10 	vmov	r4, s14
     db2:	f813 fc68 	pld	[r3, #-104]
     db6:	ed43 3a01 	vstr	s7, [r3, #-4]
     dba:	ed03 4a02 	vstr	s8, [r3, #-8]
     dbe:	ed43 4a03 	vstr	s9, [r3, #-12]
     dc2:	ed03 5a04 	vstr	s10, [r3, #-16]
     dc6:	ed43 5a05 	vstr	s11, [r3, #-20]	; 0xffffffec
     dca:	ed03 6a06 	vstr	s12, [r3, #-24]	; 0xffffffe8
     dce:	ed43 6a07 	vstr	s13, [r3, #-28]	; 0xffffffe4
     dd2:	f843 4d20 	str.w	r4, [r3, #-32]!
     dd6:	dcc7      	bgt.n	d68 <invertMatrix+0x3d0>
     dd8:	1c4b      	adds	r3, r1, #1
     dda:	eb08 0383 	add.w	r3, r8, r3, lsl #2
     dde:	ed33 7a01 	vldmdb	r3!, {s14}
     de2:	4594      	cmp	ip, r2
     de4:	f102 32ff 	add.w	r2, r2, #4294967295	; 0xffffffff
     de8:	ee27 7a27 	vmul.f32	s14, s14, s15
     dec:	ed83 7a00 	vstr	s14, [r3]
     df0:	dbf5      	blt.n	dde <invertMatrix+0x446>
     df2:	e001      	b.n	df8 <invertMatrix+0x460>
     df4:	00000000 	.word	0x00000000
     df8:	f1bc 0c01 	subs.w	ip, ip, #1
     dfc:	f100 80f9 	bmi.w	ff2 <invertMatrix+0x65a>
     e00:	9b01      	ldr	r3, [sp, #4]
     e02:	f10c 0606 	add.w	r6, ip, #6
     e06:	4665      	mov	r5, ip
     e08:	f8cd c010 	str.w	ip, [sp, #16]
     e0c:	f8dd e00c 	ldr.w	lr, [sp, #12]
     e10:	f8dd c020 	ldr.w	ip, [sp, #32]
     e14:	eb08 0b03 	add.w	fp, r8, r3
     e18:	f85e 4d04 	ldr.w	r4, [lr, #-4]!
     e1c:	42bd      	cmp	r5, r7
     e1e:	eb04 0309 	add.w	r3, r4, r9
     e22:	edd3 7a00 	vldr	s15, [r3]
     e26:	dc65      	bgt.n	ef4 <invertMatrix+0x55c>
     e28:	4565      	cmp	r5, ip
     e2a:	bfd8      	it	le
     e2c:	4556      	cmple	r6, sl
     e2e:	f280 80da 	bge.w	fe6 <invertMatrix+0x64e>
     e32:	9b01      	ldr	r3, [sp, #4]
     e34:	465a      	mov	r2, fp
     e36:	4639      	mov	r1, r7
     e38:	9400      	str	r4, [sp, #0]
     e3a:	18e3      	adds	r3, r4, r3
     e3c:	ed12 7a01 	vldr	s14, [r2, #-4]
     e40:	3908      	subs	r1, #8
     e42:	ed53 3a01 	vldr	s7, [r3, #-4]
     e46:	1e48      	subs	r0, r1, #1
     e48:	f812 fc50 	pld	[r2, #-80]
     e4c:	3a20      	subs	r2, #32
     e4e:	ed13 4a02 	vldr	s8, [r3, #-8]
     e52:	42b0      	cmp	r0, r6
     e54:	ed53 4a03 	vldr	s9, [r3, #-12]
     e58:	ee47 3ac7 	vmls.f32	s7, s15, s14
     e5c:	ed13 5a04 	vldr	s10, [r3, #-16]
     e60:	ed53 5a05 	vldr	s11, [r3, #-20]	; 0xffffffec
     e64:	ed13 6a06 	vldr	s12, [r3, #-24]	; 0xffffffe8
     e68:	ed53 6a07 	vldr	s13, [r3, #-28]	; 0xffffffe4
     e6c:	ed13 7a08 	vldr	s14, [r3, #-32]	; 0xffffffe0
     e70:	f813 fc50 	pld	[r3, #-80]
     e74:	ed43 3a01 	vstr	s7, [r3, #-4]
     e78:	edd2 3a06 	vldr	s7, [r2, #24]
     e7c:	ee07 4ae3 	vmls.f32	s8, s15, s7
     e80:	ed03 4a02 	vstr	s8, [r3, #-8]
     e84:	ed92 4a05 	vldr	s8, [r2, #20]
     e88:	ee47 4ac4 	vmls.f32	s9, s15, s8
     e8c:	ed43 4a03 	vstr	s9, [r3, #-12]
     e90:	edd2 4a04 	vldr	s9, [r2, #16]
     e94:	ee07 5ae4 	vmls.f32	s10, s15, s9
     e98:	ed03 5a04 	vstr	s10, [r3, #-16]
     e9c:	ed92 5a03 	vldr	s10, [r2, #12]
     ea0:	ee47 5ac5 	vmls.f32	s11, s15, s10
     ea4:	ed43 5a05 	vstr	s11, [r3, #-20]	; 0xffffffec
     ea8:	edd2 5a02 	vldr	s11, [r2, #8]
     eac:	ee07 6ae5 	vmls.f32	s12, s15, s11
     eb0:	ed03 6a06 	vstr	s12, [r3, #-24]	; 0xffffffe8
     eb4:	ed92 6a01 	vldr	s12, [r2, #4]
     eb8:	ee47 6ac6 	vmls.f32	s13, s15, s12
     ebc:	ed43 6a07 	vstr	s13, [r3, #-28]	; 0xffffffe4
     ec0:	edd2 6a00 	vldr	s13, [r2]
     ec4:	ee07 7ae6 	vmls.f32	s14, s15, s13
     ec8:	ee17 4a10 	vmov	r4, s14
     ecc:	f843 4d20 	str.w	r4, [r3, #-32]!
     ed0:	dcb4      	bgt.n	e3c <invertMatrix+0x4a4>
     ed2:	9c00      	ldr	r4, [sp, #0]
     ed4:	3101      	adds	r1, #1
     ed6:	0089      	lsls	r1, r1, #2
     ed8:	440c      	add	r4, r1
     eda:	4441      	add	r1, r8
     edc:	ed71 6a01 	vldmdb	r1!, {s13}
     ee0:	42a8      	cmp	r0, r5
     ee2:	ed34 7a01 	vldmdb	r4!, {s14}
     ee6:	f100 30ff 	add.w	r0, r0, #4294967295	; 0xffffffff
     eea:	ee07 7ae6 	vmls.f32	s14, s15, s13
     eee:	ed84 7a00 	vstr	s14, [r4]
     ef2:	daf3      	bge.n	edc <invertMatrix+0x544>
     ef4:	3d01      	subs	r5, #1
     ef6:	3e01      	subs	r6, #1
     ef8:	1c6b      	adds	r3, r5, #1
     efa:	d18d      	bne.n	e18 <invertMatrix+0x480>
     efc:	9b02      	ldr	r3, [sp, #8]
     efe:	f8dd c010 	ldr.w	ip, [sp, #16]
     f02:	3b01      	subs	r3, #1
     f04:	9302      	str	r3, [sp, #8]
     f06:	f1bc 0f00 	cmp.w	ip, #0
     f0a:	f47f af0a 	bne.w	d22 <invertMatrix+0x38a>
     f0e:	f8dd b018 	ldr.w	fp, [sp, #24]
     f12:	f8dd e02c 	ldr.w	lr, [sp, #44]	; 0x2c
     f16:	f1bb 0f00 	cmp.w	fp, #0
     f1a:	dd5d      	ble.n	fd8 <invertMatrix+0x640>
     f1c:	9b09      	ldr	r3, [sp, #36]	; 0x24
     f1e:	f10b 0701 	add.w	r7, fp, #1
     f22:	f1ae 0507 	sub.w	r5, lr, #7
     f26:	f10b 0c14 	add.w	ip, fp, #20
     f2a:	f8dd 9028 	ldr.w	r9, [sp, #40]	; 0x28
     f2e:	42bd      	cmp	r5, r7
     f30:	f8d3 8000 	ldr.w	r8, [r3]
     f34:	ea4f 0c8c 	mov.w	ip, ip, lsl #2
     f38:	bfd4      	ite	le
     f3a:	2700      	movle	r7, #0
     f3c:	2701      	movgt	r7, #1
     f3e:	2600      	movs	r6, #0
     f40:	45f3      	cmp	fp, lr
     f42:	da46      	bge.n	fd2 <invertMatrix+0x63a>
     f44:	f859 4026 	ldr.w	r4, [r9, r6, lsl #2]
     f48:	4658      	mov	r0, fp
     f4a:	f858 a026 	ldr.w	sl, [r8, r6, lsl #2]
     f4e:	f10b 0101 	add.w	r1, fp, #1
     f52:	b387      	cbz	r7, fb6 <invertMatrix+0x61e>
     f54:	eb0a 030c 	add.w	r3, sl, ip
     f58:	f104 021c 	add.w	r2, r4, #28
     f5c:	4658      	mov	r0, fp
     f5e:	9400      	str	r4, [sp, #0]
     f60:	ed53 7a14 	vldr	s15, [r3, #-80]	; 0xffffffb0
     f64:	3008      	adds	r0, #8
     f66:	f893 f000 	pld	[r3]
     f6a:	1c41      	adds	r1, r0, #1
     f6c:	428d      	cmp	r5, r1
     f6e:	f103 0320 	add.w	r3, r3, #32
     f72:	ed42 7a07 	vstr	s15, [r2, #-28]	; 0xffffffe4
     f76:	ed53 7a1b 	vldr	s15, [r3, #-108]	; 0xffffff94
     f7a:	ed42 7a06 	vstr	s15, [r2, #-24]	; 0xffffffe8
     f7e:	ed53 7a1a 	vldr	s15, [r3, #-104]	; 0xffffff98
     f82:	ed42 7a05 	vstr	s15, [r2, #-20]	; 0xffffffec
     f86:	ed53 7a19 	vldr	s15, [r3, #-100]	; 0xffffff9c
     f8a:	ed42 7a04 	vstr	s15, [r2, #-16]
     f8e:	ed53 7a18 	vldr	s15, [r3, #-96]	; 0xffffffa0
     f92:	ed42 7a03 	vstr	s15, [r2, #-12]
     f96:	ed53 7a17 	vldr	s15, [r3, #-92]	; 0xffffffa4
     f9a:	ed42 7a02 	vstr	s15, [r2, #-8]
     f9e:	ed53 7a16 	vldr	s15, [r3, #-88]	; 0xffffffa8
     fa2:	ed42 7a01 	vstr	s15, [r2, #-4]
     fa6:	ed53 7a15 	vldr	s15, [r3, #-84]	; 0xffffffac
     faa:	ee17 4a90 	vmov	r4, s15
     fae:	f842 4b20 	str.w	r4, [r2], #32
     fb2:	dcd5      	bgt.n	f60 <invertMatrix+0x5c8>
     fb4:	9c00      	ldr	r4, [sp, #0]
     fb6:	ebcb 0300 	rsb	r3, fp, r0
     fba:	eb0a 0080 	add.w	r0, sl, r0, lsl #2
     fbe:	eb04 0383 	add.w	r3, r4, r3, lsl #2
     fc2:	f850 2b04 	ldr.w	r2, [r0], #4
     fc6:	4571      	cmp	r1, lr
     fc8:	f101 0101 	add.w	r1, r1, #1
     fcc:	f843 2b04 	str.w	r2, [r3], #4
     fd0:	dbf7      	blt.n	fc2 <invertMatrix+0x62a>
     fd2:	3601      	adds	r6, #1
     fd4:	455e      	cmp	r6, fp
     fd6:	d1b3      	bne.n	f40 <invertMatrix+0x5a8>
     fd8:	2000      	movs	r0, #0
     fda:	b00d      	add	sp, #52	; 0x34
     fdc:	e8bd 8ff0 	ldmia.w	sp!, {r4, r5, r6, r7, r8, r9, sl, fp, pc}
     fe0:	4639      	mov	r1, r7
     fe2:	1c78      	adds	r0, r7, #1
     fe4:	e64d      	b.n	c82 <invertMatrix+0x2ea>
     fe6:	4639      	mov	r1, r7
     fe8:	1e78      	subs	r0, r7, #1
     fea:	e773      	b.n	ed4 <invertMatrix+0x53c>
     fec:	4639      	mov	r1, r7
     fee:	1e7a      	subs	r2, r7, #1
     ff0:	e6f2      	b.n	dd8 <invertMatrix+0x440>
     ff2:	9b02      	ldr	r3, [sp, #8]
     ff4:	3b01      	subs	r3, #1
     ff6:	9302      	str	r3, [sp, #8]
     ff8:	e693      	b.n	d22 <invertMatrix+0x38a>
     ffa:	463a      	mov	r2, r7
     ffc:	1c79      	adds	r1, r7, #1
     ffe:	e5bf      	b.n	b80 <invertMatrix+0x1e8>
    1000:	9909      	ldr	r1, [sp, #36]	; 0x24
    1002:	6808      	ldr	r0, [r1, #0]
    1004:	b1c8      	cbz	r0, 103a <invertMatrix+0x6a2>
    1006:	2b00      	cmp	r3, #0
    1008:	dd12      	ble.n	1030 <invertMatrix+0x698>
    100a:	2500      	movs	r5, #0
    100c:	460f      	mov	r7, r1
    100e:	4689      	mov	r9, r1
    1010:	e000      	b.n	1014 <invertMatrix+0x67c>
    1012:	6838      	ldr	r0, [r7, #0]
    1014:	f850 0025 	ldr.w	r0, [r0, r5, lsl #2]
    1018:	3501      	adds	r5, #1
    101a:	f7ff fffe 	bl	0 <aec_free>
			101a: R_ARM_THM_CALL	aec_free
    101e:	f8d9 2004 	ldr.w	r2, [r9, #4]
    1022:	f240 0300 	movw	r3, #0
			1022: R_ARM_THM_MOVW_ABS_NC	.LANCHOR0
    1026:	f2c0 0300 	movt	r3, #0
			1026: R_ARM_THM_MOVT_ABS	.LANCHOR0
    102a:	42aa      	cmp	r2, r5
    102c:	dcf1      	bgt.n	1012 <invertMatrix+0x67a>
    102e:	6818      	ldr	r0, [r3, #0]
    1030:	f7ff fffe 	bl	0 <aec_free>
			1030: R_ARM_THM_CALL	aec_free
    1034:	9a09      	ldr	r2, [sp, #36]	; 0x24
    1036:	2300      	movs	r3, #0
    1038:	6013      	str	r3, [r2, #0]
    103a:	2c00      	cmp	r4, #0
    103c:	d1cc      	bne.n	fd8 <invertMatrix+0x640>
    103e:	9d09      	ldr	r5, [sp, #36]	; 0x24
    1040:	4640      	mov	r0, r8
    1042:	2104      	movs	r1, #4
    1044:	f8c5 8004 	str.w	r8, [r5, #4]
    1048:	f7ff fffe 	bl	0 <aec_calloc>
			1048: R_ARM_THM_CALL	aec_calloc
    104c:	f8d5 b004 	ldr.w	fp, [r5, #4]
    1050:	462a      	mov	r2, r5
    1052:	6028      	str	r0, [r5, #0]
    1054:	f1bb 0f00 	cmp.w	fp, #0
    1058:	f77f ad16 	ble.w	a88 <invertMatrix+0xf0>
    105c:	f240 0500 	movw	r5, #0
			105c: R_ARM_THM_MOVW_ABS_NC	.LANCHOR0
    1060:	4607      	mov	r7, r0
    1062:	465b      	mov	r3, fp
    1064:	f2c0 0500 	movt	r5, #0
			1064: R_ARM_THM_MOVT_ABS	.LANCHOR0
    1068:	4690      	mov	r8, r2
    106a:	e000      	b.n	106e <invertMatrix+0x6d6>
    106c:	682f      	ldr	r7, [r5, #0]
    106e:	0058      	lsls	r0, r3, #1
    1070:	2104      	movs	r1, #4
    1072:	f7ff fffe 	bl	0 <aec_calloc>
			1072: R_ARM_THM_CALL	aec_calloc
    1076:	f8d8 3004 	ldr.w	r3, [r8, #4]
    107a:	f847 0024 	str.w	r0, [r7, r4, lsl #2]
    107e:	3401      	adds	r4, #1
    1080:	42a3      	cmp	r3, r4
    1082:	dcf3      	bgt.n	106c <invertMatrix+0x6d4>
    1084:	e49f      	b.n	9c6 <invertMatrix+0x2e>
    1086:	bf00      	nop

00001088 <adaptive_filter_ap_update>:
    1088:	eddf 6ade 	vldr	s13, [pc, #888]	; 1404 <adaptive_filter_ap_update+0x37c>
    108c:	2903      	cmp	r1, #3
    108e:	ed90 7a03 	vldr	s14, [r0, #12]
    1092:	bfc8      	it	gt
    1094:	3903      	subgt	r1, #3
    1096:	e92d 4ff8 	stmdb	sp!, {r3, r4, r5, r6, r7, r8, r9, sl, fp, lr}
    109a:	4691      	mov	r9, r2
    109c:	f8b2 8004 	ldrh.w	r8, [r2, #4]
    10a0:	f04f 0601 	mov.w	r6, #1
    10a4:	f04f 0e00 	mov.w	lr, #0
    10a8:	f109 0c18 	add.w	ip, r9, #24
    10ac:	eef0 7a66 	vmov.f32	s15, s13
    10b0:	6b94      	ldr	r4, [r2, #56]	; 0x38
    10b2:	4672      	mov	r2, lr
    10b4:	ee47 7a07 	vmla.f32	s15, s14, s14
    10b8:	bfc8      	it	gt
    10ba:	fa0f f888 	sxthgt.w	r8, r8
    10be:	f8d9 3040 	ldr.w	r3, [r9, #64]	; 0x40
    10c2:	ed94 5a00 	vldr	s10, [r4]
    10c6:	bfc8      	it	gt
    10c8:	fa48 f801 	asrgt.w	r8, r8, r1
    10cc:	f9b9 1010 	ldrsh.w	r1, [r9, #16]
    10d0:	bfc8      	it	gt
    10d2:	fa1f f888 	uxthgt.w	r8, r8
    10d6:	ed83 7a00 	vstr	s14, [r3]
    10da:	ed90 6a02 	vldr	s12, [r0, #8]
    10de:	ee04 1a10 	vmov	s8, r1
    10e2:	eeb8 7ac4 	vcvt.f32.s32	s14, s8
    10e6:	ed83 6a01 	vstr	s12, [r3, #4]
    10ea:	ee46 7a06 	vmla.f32	s15, s12, s12
    10ee:	edd0 5a01 	vldr	s11, [r0, #4]
    10f2:	ed9f 4ac5 	vldr	s8, [pc, #788]	; 1408 <adaptive_filter_ap_update+0x380>
    10f6:	f8d9 100c 	ldr.w	r1, [r9, #12]
    10fa:	edc3 5a02 	vstr	s11, [r3, #8]
    10fe:	ed90 6a00 	vldr	s12, [r0]
    1102:	ee27 4a04 	vmul.f32	s8, s14, s8
    1106:	fa06 f101 	lsl.w	r1, r6, r1
    110a:	ee45 7aa5 	vmla.f32	s15, s11, s11
    110e:	eeb7 7a00 	vmov.f32	s14, #112	; 0x70
    1112:	f8d9 0030 	ldr.w	r0, [r9, #48]	; 0x30
    1116:	ee37 7a44 	vsub.f32	s14, s14, s8
    111a:	f8d9 5034 	ldr.w	r5, [r9, #52]	; 0x34
    111e:	f1a0 0b04 	sub.w	fp, r0, #4
    1122:	ed83 6a03 	vstr	s12, [r3, #12]
    1126:	ee03 1a90 	vmov	s7, r1
    112a:	ee46 7a06 	vmla.f32	s15, s12, s12
    112e:	f1a5 0a04 	sub.w	sl, r5, #4
    1132:	ee27 4a84 	vmul.f32	s8, s15, s8
    1136:	ee07 4a05 	vmla.f32	s8, s14, s10
    113a:	ed84 4a00 	vstr	s8, [r4]
    113e:	ed99 3a02 	vldr	s6, [r9, #8]
    1142:	f85c 1f04 	ldr.w	r1, [ip, #4]!
    1146:	4615      	mov	r5, r2
    1148:	f85b 4f04 	ldr.w	r4, [fp, #4]!
    114c:	f85a 3f04 	ldr.w	r3, [sl, #4]!
    1150:	4667      	mov	r7, ip
    1152:	4474      	add	r4, lr
    1154:	4473      	add	r3, lr
    1156:	ed94 7a00 	vldr	s14, [r4]
    115a:	42aa      	cmp	r2, r5
    115c:	edd3 7a00 	vldr	s15, [r3]
    1160:	f857 6b04 	ldr.w	r6, [r7], #4
    1164:	eeb0 6a66 	vmov.f32	s12, s13
    1168:	ee77 7a67 	vsub.f32	s15, s14, s15
    116c:	edc4 7a00 	vstr	s15, [r4]
    1170:	edc3 6a00 	vstr	s13, [r3]
    1174:	ed91 7a00 	vldr	s14, [r1]
    1178:	edd6 7a00 	vldr	s15, [r6]
    117c:	ee07 6a27 	vmla.f32	s12, s14, s15
    1180:	ed83 6a00 	vstr	s12, [r3]
    1184:	ed91 5a01 	vldr	s10, [r1, #4]
    1188:	edd6 5a01 	vldr	s11, [r6, #4]
    118c:	eeb0 7a46 	vmov.f32	s14, s12
    1190:	edd6 7a3c 	vldr	s15, [r6, #240]	; 0xf0
    1194:	ed91 6a3c 	vldr	s12, [r1, #240]	; 0xf0
    1198:	ee05 7a25 	vmla.f32	s14, s10, s11
    119c:	eef0 5a66 	vmov.f32	s11, s13
    11a0:	ee46 5a27 	vmla.f32	s11, s12, s15
    11a4:	ed83 7a00 	vstr	s14, [r3]
    11a8:	edd1 4a02 	vldr	s9, [r1, #8]
    11ac:	ed96 5a02 	vldr	s10, [r6, #8]
    11b0:	ed96 6a3d 	vldr	s12, [r6, #244]	; 0xf4
    11b4:	eef0 7a65 	vmov.f32	s15, s11
    11b8:	edd1 5a3d 	vldr	s11, [r1, #244]	; 0xf4
    11bc:	ee04 7a85 	vmla.f32	s14, s9, s10
    11c0:	ee45 7a86 	vmla.f32	s15, s11, s12
    11c4:	ed83 7a00 	vstr	s14, [r3]
    11c8:	edd1 4a03 	vldr	s9, [r1, #12]
    11cc:	ed96 5a03 	vldr	s10, [r6, #12]
    11d0:	edd1 5a3e 	vldr	s11, [r1, #248]	; 0xf8
    11d4:	ed96 6a3e 	vldr	s12, [r6, #248]	; 0xf8
    11d8:	ee04 7a85 	vmla.f32	s14, s9, s10
    11dc:	ee45 7a86 	vmla.f32	s15, s11, s12
    11e0:	ed83 7a00 	vstr	s14, [r3]
    11e4:	edd1 5a3f 	vldr	s11, [r1, #252]	; 0xfc
    11e8:	ed96 6a3f 	vldr	s12, [r6, #252]	; 0xfc
    11ec:	ed94 7a00 	vldr	s14, [r4]
    11f0:	ee45 7a86 	vmla.f32	s15, s11, s12
    11f4:	ee77 7a87 	vadd.f32	s15, s15, s14
    11f8:	edc4 7a00 	vstr	s15, [r4]
    11fc:	f000 80f0 	beq.w	13e0 <adaptive_filter_ap_update+0x358>
    1200:	f850 6025 	ldr.w	r6, [r0, r5, lsl #2]
    1204:	4476      	add	r6, lr
    1206:	edc6 7a00 	vstr	s15, [r6]
    120a:	3501      	adds	r5, #1
    120c:	3404      	adds	r4, #4
    120e:	2d04      	cmp	r5, #4
    1210:	f103 0304 	add.w	r3, r3, #4
    1214:	d19f      	bne.n	1156 <adaptive_filter_ap_update+0xce>
    1216:	3201      	adds	r2, #1
    1218:	f10e 0e04 	add.w	lr, lr, #4
    121c:	2a04      	cmp	r2, #4
    121e:	d190      	bne.n	1142 <adaptive_filter_ap_update+0xba>
    1220:	f8d9 1044 	ldr.w	r1, [r9, #68]	; 0x44
    1224:	f7ff fffe 	bl	998 <invertMatrix>
			1224: R_ARM_THM_CALL	invertMatrix
    1228:	fa0f f388 	sxth.w	r3, r8
    122c:	f8d9 1044 	ldr.w	r1, [r9, #68]	; 0x44
    1230:	f8d9 2040 	ldr.w	r2, [r9, #64]	; 0x40
    1234:	eddf 7a73 	vldr	s15, [pc, #460]	; 1404 <adaptive_filter_ap_update+0x37c>
    1238:	ee07 3a10 	vmov	s14, r3
    123c:	680d      	ldr	r5, [r1, #0]
    123e:	f8d9 3048 	ldr.w	r3, [r9, #72]	; 0x48
    1242:	eddf 5a71 	vldr	s11, [pc, #452]	; 1408 <adaptive_filter_ap_update+0x380>
    1246:	eeb8 7ac7 	vcvt.f32.s32	s14, s14
    124a:	edc3 7a00 	vstr	s15, [r3]
    124e:	461c      	mov	r4, r3
    1250:	ed95 6a00 	vldr	s12, [r5]
    1254:	f103 0710 	add.w	r7, r3, #16
    1258:	edd2 6a00 	vldr	s13, [r2]
    125c:	ee27 7a25 	vmul.f32	s14, s14, s11
    1260:	eef0 5a67 	vmov.f32	s11, s15
    1264:	6848      	ldr	r0, [r1, #4]
    1266:	ee46 5a26 	vmla.f32	s11, s12, s13
    126a:	688e      	ldr	r6, [r1, #8]
    126c:	eef0 6a65 	vmov.f32	s13, s11
    1270:	edc3 5a00 	vstr	s11, [r3]
    1274:	edd5 5a01 	vldr	s11, [r5, #4]
    1278:	ed92 6a01 	vldr	s12, [r2, #4]
    127c:	ee45 6a86 	vmla.f32	s13, s11, s12
    1280:	edc3 6a00 	vstr	s13, [r3]
    1284:	edd5 5a02 	vldr	s11, [r5, #8]
    1288:	ed92 6a02 	vldr	s12, [r2, #8]
    128c:	ee45 6a86 	vmla.f32	s13, s11, s12
    1290:	edc3 6a00 	vstr	s13, [r3]
    1294:	edd5 5a03 	vldr	s11, [r5, #12]
    1298:	ed92 6a03 	vldr	s12, [r2, #12]
    129c:	edc3 7a01 	vstr	s15, [r3, #4]
    12a0:	ee45 6a86 	vmla.f32	s13, s11, s12
    12a4:	eef0 5a67 	vmov.f32	s11, s15
    12a8:	ee66 6a87 	vmul.f32	s13, s13, s14
    12ac:	edc3 6a00 	vstr	s13, [r3]
    12b0:	ed90 6a00 	vldr	s12, [r0]
    12b4:	edd2 6a00 	vldr	s13, [r2]
    12b8:	ee46 5a26 	vmla.f32	s11, s12, s13
    12bc:	edc3 5a01 	vstr	s11, [r3, #4]
    12c0:	eef0 6a65 	vmov.f32	s13, s11
    12c4:	ed92 6a01 	vldr	s12, [r2, #4]
    12c8:	edd0 5a01 	vldr	s11, [r0, #4]
    12cc:	ee45 6a86 	vmla.f32	s13, s11, s12
    12d0:	edc3 6a01 	vstr	s13, [r3, #4]
    12d4:	edd0 5a02 	vldr	s11, [r0, #8]
    12d8:	ed92 6a02 	vldr	s12, [r2, #8]
    12dc:	ee45 6a86 	vmla.f32	s13, s11, s12
    12e0:	edc3 6a01 	vstr	s13, [r3, #4]
    12e4:	edd0 5a03 	vldr	s11, [r0, #12]
    12e8:	ed92 6a03 	vldr	s12, [r2, #12]
    12ec:	edc3 7a02 	vstr	s15, [r3, #8]
    12f0:	ee45 6a86 	vmla.f32	s13, s11, s12
    12f4:	eef0 5a67 	vmov.f32	s11, s15
    12f8:	ee66 6a87 	vmul.f32	s13, s13, s14
    12fc:	edc3 6a01 	vstr	s13, [r3, #4]
    1300:	ed96 6a00 	vldr	s12, [r6]
    1304:	edd2 6a00 	vldr	s13, [r2]
    1308:	68cd      	ldr	r5, [r1, #12]
    130a:	f8d9 0018 	ldr.w	r0, [r9, #24]
    130e:	f8d9 1014 	ldr.w	r1, [r9, #20]
    1312:	ee46 5a26 	vmla.f32	s11, s12, s13
    1316:	3014      	adds	r0, #20
    1318:	f101 0efc 	add.w	lr, r1, #252	; 0xfc
    131c:	3904      	subs	r1, #4
    131e:	edc3 5a02 	vstr	s11, [r3, #8]
    1322:	eef0 6a65 	vmov.f32	s13, s11
    1326:	ed92 6a01 	vldr	s12, [r2, #4]
    132a:	edd6 5a01 	vldr	s11, [r6, #4]
    132e:	ee45 6a86 	vmla.f32	s13, s11, s12
    1332:	edc3 6a02 	vstr	s13, [r3, #8]
    1336:	edd6 5a02 	vldr	s11, [r6, #8]
    133a:	ed92 6a02 	vldr	s12, [r2, #8]
    133e:	ee45 6a86 	vmla.f32	s13, s11, s12
    1342:	edc3 6a02 	vstr	s13, [r3, #8]
    1346:	ed92 6a03 	vldr	s12, [r2, #12]
    134a:	edd6 5a03 	vldr	s11, [r6, #12]
    134e:	edc3 7a03 	vstr	s15, [r3, #12]
    1352:	ee45 6a86 	vmla.f32	s13, s11, s12
    1356:	ee66 6a87 	vmul.f32	s13, s13, s14
    135a:	edc3 6a02 	vstr	s13, [r3, #8]
    135e:	ed95 6a00 	vldr	s12, [r5]
    1362:	edd2 6a00 	vldr	s13, [r2]
    1366:	ee46 7a26 	vmla.f32	s15, s12, s13
    136a:	edc3 7a03 	vstr	s15, [r3, #12]
    136e:	ed95 6a01 	vldr	s12, [r5, #4]
    1372:	edd2 6a01 	vldr	s13, [r2, #4]
    1376:	ee46 7a26 	vmla.f32	s15, s12, s13
    137a:	edc3 7a03 	vstr	s15, [r3, #12]
    137e:	ed95 6a02 	vldr	s12, [r5, #8]
    1382:	edd2 6a02 	vldr	s13, [r2, #8]
    1386:	ee46 7a26 	vmla.f32	s15, s12, s13
    138a:	edc3 7a03 	vstr	s15, [r3, #12]
    138e:	ed95 6a03 	vldr	s12, [r5, #12]
    1392:	edd2 6a03 	vldr	s13, [r2, #12]
    1396:	ee46 7a26 	vmla.f32	s15, s12, s13
    139a:	ee67 7a87 	vmul.f32	s15, s15, s14
    139e:	edc3 7a03 	vstr	s15, [r3, #12]
    13a2:	ecf4 6a01 	vldmia	r4!, {s13}
    13a6:	4673      	mov	r3, lr
    13a8:	4602      	mov	r2, r0
    13aa:	ed12 6a02 	vldr	s12, [r2, #-8]
    13ae:	3b08      	subs	r3, #8
    13b0:	ed93 7a02 	vldr	s14, [r3, #8]
    13b4:	3208      	adds	r2, #8
    13b6:	edd3 7a01 	vldr	s15, [r3, #4]
    13ba:	ee06 7a86 	vmla.f32	s14, s13, s12
    13be:	ed83 7a02 	vstr	s14, [r3, #8]
    13c2:	ed12 7a03 	vldr	s14, [r2, #-12]
    13c6:	ee46 7a87 	vmla.f32	s15, s13, s14
    13ca:	edc3 7a01 	vstr	s15, [r3, #4]
    13ce:	428b      	cmp	r3, r1
    13d0:	d1eb      	bne.n	13aa <adaptive_filter_ap_update+0x322>
    13d2:	42bc      	cmp	r4, r7
    13d4:	f1a0 0004 	sub.w	r0, r0, #4
    13d8:	d1e3      	bne.n	13a2 <adaptive_filter_ap_update+0x31a>
    13da:	2000      	movs	r0, #0
    13dc:	e8bd 8ff8 	ldmia.w	sp!, {r3, r4, r5, r6, r7, r8, r9, sl, fp, pc}
    13e0:	eeb8 7ae3 	vcvt.f32.s32	s14, s7
    13e4:	eeb0 6a43 	vmov.f32	s12, s6
    13e8:	ee04 6a07 	vmla.f32	s12, s8, s14
    13ec:	ee77 7a86 	vadd.f32	s15, s15, s12
    13f0:	edc4 7a00 	vstr	s15, [r4]
    13f4:	edd3 7a00 	vldr	s15, [r3]
    13f8:	ee37 7a86 	vadd.f32	s14, s15, s12
    13fc:	ed83 7a00 	vstr	s14, [r3]
    1400:	e703      	b.n	120a <adaptive_filter_ap_update+0x182>
    1402:	bf00      	nop
    1404:	00000000 	.word	0x00000000
    1408:	38000100 	.word	0x38000100

aec_fmath.o:     file format elf32-littlearm
rw-rw-r-- 1016/1016   5516 Dec 10 16:27 2015 aec_fmath.o
architecture: arm, flags 0x00000011:
HAS_RELOC, HAS_SYMS
start address 0x00000000
private flags = 5000000: [Version5 EABI]

Sections:
Idx Name          Size      VMA       LMA       File off  Algn
  0 .text         00001054  00000000  00000000  00000034  2**2
                  CONTENTS, ALLOC, LOAD, RELOC, READONLY, CODE
  1 .data         00000000  00000000  00000000  00001088  2**0
                  CONTENTS, ALLOC, LOAD, DATA
  2 .bss          00000000  00000000  00000000  00001088  2**0
                  ALLOC
  3 .comment      00000037  00000000  00000000  00001088  2**0
                  CONTENTS, READONLY
  4 .note.GNU-stack 00000000  00000000  00000000  000010bf  2**0
                  CONTENTS, READONLY
  5 .ARM.attributes 00000035  00000000  00000000  000010bf  2**0
                  CONTENTS, READONLY
SYMBOL TABLE:
00000000 l    df *ABS*	00000000 aec_fmath.c
00000000 l    d  .text	00000000 .text
00000000 l    d  .data	00000000 .data
00000000 l    d  .bss	00000000 .bss
00000000 l    d  .note.GNU-stack	00000000 .note.GNU-stack
00000000 l    d  .comment	00000000 .comment
00000000 l    d  .ARM.attributes	00000000 .ARM.attributes
00000000 g     F .text	000001b8 aec_fexp
000001b8 g     F .text	00000134 aec_flog
000002ec g     F .text	00000244 aec_fexpint
00000530 g     F .text	00000148 aec_flog10
00000678 g     F .text	00000016 aec_flog2
00000690 g     F .text	000002f8 aec_fpow
00000988 g     F .text	00000010 aec_fpow2powerOf2
00000998 g     F .text	000002dc aec_fsqrt
00000c74 g     F .text	000003e0 aec_fsqrt_slow



Disassembly of section .text:

00000000 <aec_fexp>:
       0:	eddf 7a68 	vldr	s15, [pc, #416]	; 1a4 <aec_fexp+0x1a4>
       4:	eeb4 0ae7 	vcmpe.f32	s0, s15
       8:	eef1 fa10 	vmrs	APSR_nzcv, fpscr
       c:	d445      	bmi.n	9a <aec_fexp+0x9a>
       e:	eddf 7a66 	vldr	s15, [pc, #408]	; 1a8 <aec_fexp+0x1a8>
      12:	eeb4 0ae7 	vcmpe.f32	s0, s15
      16:	eef1 fa10 	vmrs	APSR_nzcv, fpscr
      1a:	dc3b      	bgt.n	94 <aec_fexp+0x94>
      1c:	eeb5 0ac0 	vcmpe.f32	s0, #0.0
      20:	eef1 fa10 	vmrs	APSR_nzcv, fpscr
      24:	dd4d      	ble.n	c2 <aec_fexp+0xc2>
      26:	eeb6 7a00 	vmov.f32	s14, #96	; 0x60
      2a:	eeb4 0ac7 	vcmpe.f32	s0, s14
      2e:	eef1 fa10 	vmrs	APSR_nzcv, fpscr
      32:	dd35      	ble.n	a0 <aec_fexp+0xa0>
      34:	eef6 6a00 	vmov.f32	s13, #96	; 0x60
      38:	ee20 7a26 	vmul.f32	s14, s0, s13
      3c:	eeb4 7ae6 	vcmpe.f32	s14, s13
      40:	eef1 fa10 	vmrs	APSR_nzcv, fpscr
      44:	dd76      	ble.n	134 <aec_fexp+0x134>
      46:	2201      	movs	r2, #1
      48:	eef6 7a00 	vmov.f32	s15, #96	; 0x60
      4c:	ee27 7a27 	vmul.f32	s14, s14, s15
      50:	3201      	adds	r2, #1
      52:	eef6 6a00 	vmov.f32	s13, #96	; 0x60
      56:	eeb4 7ae7 	vcmpe.f32	s14, s15
      5a:	eef1 fa10 	vmrs	APSR_nzcv, fpscr
      5e:	dcf5      	bgt.n	4c <aec_fexp+0x4c>
      60:	eeb5 0ac0 	vcmpe.f32	s0, #0.0
      64:	eef1 fa10 	vmrs	APSR_nzcv, fpscr
      68:	dd3c      	ble.n	e4 <aec_fexp+0xe4>
      6a:	eef7 7a00 	vmov.f32	s15, #112	; 0x70
      6e:	ee37 0a27 	vadd.f32	s0, s14, s15
      72:	ed9f 6a4e 	vldr	s12, [pc, #312]	; 1ac <aec_fexp+0x1ac>
      76:	ee67 7a07 	vmul.f32	s15, s14, s14
      7a:	ee07 0aa6 	vmla.f32	s0, s15, s13
      7e:	ee27 7a27 	vmul.f32	s14, s14, s15
      82:	ee07 0a06 	vmla.f32	s0, s14, s12
      86:	2301      	movs	r3, #1
      88:	3301      	adds	r3, #1
      8a:	ee20 0a00 	vmul.f32	s0, s0, s0
      8e:	4293      	cmp	r3, r2
      90:	ddfa      	ble.n	88 <aec_fexp+0x88>
      92:	4770      	bx	lr
      94:	ed9f 0a46 	vldr	s0, [pc, #280]	; 1b0 <aec_fexp+0x1b0>
      98:	4770      	bx	lr
      9a:	ed9f 0a46 	vldr	s0, [pc, #280]	; 1b4 <aec_fexp+0x1b4>
      9e:	4770      	bx	lr
      a0:	eef7 7a00 	vmov.f32	s15, #112	; 0x70
      a4:	ee60 6a00 	vmul.f32	s13, s0, s0
      a8:	ee70 7a27 	vadd.f32	s15, s0, s15
      ac:	ed9f 6a3f 	vldr	s12, [pc, #252]	; 1ac <aec_fexp+0x1ac>
      b0:	ee20 0a26 	vmul.f32	s0, s0, s13
      b4:	ee46 7a87 	vmla.f32	s15, s13, s14
      b8:	ee40 7a06 	vmla.f32	s15, s0, s12
      bc:	eeb0 0a67 	vmov.f32	s0, s15
      c0:	4770      	bx	lr
      c2:	eefe 7a00 	vmov.f32	s15, #224	; 0xe0
      c6:	eeb4 0ae7 	vcmpe.f32	s0, s15
      ca:	eef1 fa10 	vmrs	APSR_nzcv, fpscr
      ce:	eeb5 0ac0 	vcmpe.f32	s0, #0.0
      d2:	d41c      	bmi.n	10e <aec_fexp+0x10e>
      d4:	eef1 fa10 	vmrs	APSR_nzcv, fpscr
      d8:	dc51      	bgt.n	17e <aec_fexp+0x17e>
      da:	eeb1 7a40 	vneg.f32	s14, s0
      de:	bfd8      	it	le
      e0:	2200      	movle	r2, #0
      e2:	dc39      	bgt.n	158 <aec_fexp+0x158>
      e4:	eef1 6a47 	vneg.f32	s13, s14
      e8:	eef7 7a00 	vmov.f32	s15, #112	; 0x70
      ec:	ee37 0ac7 	vsub.f32	s0, s15, s14
      f0:	ee26 6aa6 	vmul.f32	s12, s13, s13
      f4:	eeb6 7a00 	vmov.f32	s14, #96	; 0x60
      f8:	eddf 7a2c 	vldr	s15, [pc, #176]	; 1ac <aec_fexp+0x1ac>
      fc:	ee06 0a07 	vmla.f32	s0, s12, s14
     100:	ee66 6a86 	vmul.f32	s13, s13, s12
     104:	ee06 0aa7 	vmla.f32	s0, s13, s15
     108:	2a00      	cmp	r2, #0
     10a:	d1bc      	bne.n	86 <aec_fexp+0x86>
     10c:	4770      	bx	lr
     10e:	eef1 fa10 	vmrs	APSR_nzcv, fpscr
     112:	dc8f      	bgt.n	34 <aec_fexp+0x34>
     114:	eef6 6a00 	vmov.f32	s13, #96	; 0x60
     118:	ee20 7a66 	vnmul.f32	s14, s0, s13
     11c:	eeb4 7ae6 	vcmpe.f32	s14, s13
     120:	eef1 fa10 	vmrs	APSR_nzcv, fpscr
     124:	dc8f      	bgt.n	46 <aec_fexp+0x46>
     126:	eeb5 0ac0 	vcmpe.f32	s0, #0.0
     12a:	eef1 fa10 	vmrs	APSR_nzcv, fpscr
     12e:	bfd8      	it	le
     130:	2201      	movle	r2, #1
     132:	ddd7      	ble.n	e4 <aec_fexp+0xe4>
     134:	eef7 7a00 	vmov.f32	s15, #112	; 0x70
     138:	2201      	movs	r2, #1
     13a:	ee27 6a07 	vmul.f32	s12, s14, s14
     13e:	ee77 7a27 	vadd.f32	s15, s14, s15
     142:	eddf 5a1a 	vldr	s11, [pc, #104]	; 1ac <aec_fexp+0x1ac>
     146:	ee27 7a06 	vmul.f32	s14, s14, s12
     14a:	ee46 7a26 	vmla.f32	s15, s12, s13
     14e:	ee47 7a25 	vmla.f32	s15, s14, s11
     152:	eeb0 0a67 	vmov.f32	s0, s15
     156:	e796      	b.n	86 <aec_fexp+0x86>
     158:	eef7 7a00 	vmov.f32	s15, #112	; 0x70
     15c:	ee67 6a07 	vmul.f32	s13, s14, s14
     160:	ee77 7ac0 	vsub.f32	s15, s15, s0
     164:	eef6 5a00 	vmov.f32	s11, #96	; 0x60
     168:	ed9f 6a10 	vldr	s12, [pc, #64]	; 1ac <aec_fexp+0x1ac>
     16c:	ee27 7a26 	vmul.f32	s14, s14, s13
     170:	ee46 7aa5 	vmla.f32	s15, s13, s11
     174:	ee47 7a06 	vmla.f32	s15, s14, s12
     178:	eeb0 0a67 	vmov.f32	s0, s15
     17c:	4770      	bx	lr
     17e:	eef7 7a00 	vmov.f32	s15, #112	; 0x70
     182:	ee20 7a00 	vmul.f32	s14, s0, s0
     186:	ee70 7a27 	vadd.f32	s15, s0, s15
     18a:	eeb6 6a00 	vmov.f32	s12, #96	; 0x60
     18e:	eddf 6a07 	vldr	s13, [pc, #28]	; 1ac <aec_fexp+0x1ac>
     192:	ee20 0a07 	vmul.f32	s0, s0, s14
     196:	ee47 7a06 	vmla.f32	s15, s14, s12
     19a:	ee40 7a26 	vmla.f32	s15, s0, s13
     19e:	eeb0 0a67 	vmov.f32	s0, s15
     1a2:	4770      	bx	lr
     1a4:	c2ac0000 	.word	0xc2ac0000
     1a8:	42ae0000 	.word	0x42ae0000
     1ac:	3e2aaaab 	.word	0x3e2aaaab
     1b0:	7e36d809 	.word	0x7e36d809
     1b4:	01739361 	.word	0x01739361

000001b8 <aec_flog>:
     1b8:	eddf 7a45 	vldr	s15, [pc, #276]	; 2d0 <aec_flog+0x118>
     1bc:	eeb4 0ae7 	vcmpe.f32	s0, s15
     1c0:	eef1 fa10 	vmrs	APSR_nzcv, fpscr
     1c4:	d946      	bls.n	254 <aec_flog+0x9c>
     1c6:	eddf 7a43 	vldr	s15, [pc, #268]	; 2d4 <aec_flog+0x11c>
     1ca:	eeb4 0ae7 	vcmpe.f32	s0, s15
     1ce:	eef1 fa10 	vmrs	APSR_nzcv, fpscr
     1d2:	dc3c      	bgt.n	24e <aec_flog+0x96>
     1d4:	eef7 7a08 	vmov.f32	s15, #120	; 0x78
     1d8:	eeb4 0ae7 	vcmpe.f32	s0, s15
     1dc:	eef1 fa10 	vmrs	APSR_nzcv, fpscr
     1e0:	dc3b      	bgt.n	25a <aec_flog+0xa2>
     1e2:	eef6 7a00 	vmov.f32	s15, #96	; 0x60
     1e6:	eeb4 0ae7 	vcmpe.f32	s0, s15
     1ea:	eef1 fa10 	vmrs	APSR_nzcv, fpscr
     1ee:	d565      	bpl.n	2bc <aec_flog+0x104>
     1f0:	ee30 0a00 	vadd.f32	s0, s0, s0
     1f4:	eeb4 0ae7 	vcmpe.f32	s0, s15
     1f8:	eef1 fa10 	vmrs	APSR_nzcv, fpscr
     1fc:	d564      	bpl.n	2c8 <aec_flog+0x110>
     1fe:	2301      	movs	r3, #1
     200:	ee30 0a00 	vadd.f32	s0, s0, s0
     204:	3301      	adds	r3, #1
     206:	eeb4 0ae7 	vcmpe.f32	s0, s15
     20a:	eef1 fa10 	vmrs	APSR_nzcv, fpscr
     20e:	d4f7      	bmi.n	200 <aec_flog+0x48>
     210:	ee07 3a90 	vmov	s15, r3
     214:	ed9f 7a30 	vldr	s14, [pc, #192]	; 2d8 <aec_flog+0x120>
     218:	eef8 7ae7 	vcvt.f32.s32	s15, s15
     21c:	ee27 7a87 	vmul.f32	s14, s15, s14
     220:	eef7 7a00 	vmov.f32	s15, #112	; 0x70
     224:	ee30 0a67 	vsub.f32	s0, s0, s15
     228:	ed9f 6a2c 	vldr	s12, [pc, #176]	; 2dc <aec_flog+0x124>
     22c:	eef6 7a00 	vmov.f32	s15, #96	; 0x60
     230:	ee60 6a40 	vnmul.f32	s13, s0, s0
     234:	eef0 5a40 	vmov.f32	s11, s0
     238:	ee46 5aa7 	vmla.f32	s11, s13, s15
     23c:	ee26 0ac0 	vnmul.f32	s0, s13, s0
     240:	eef0 7a65 	vmov.f32	s15, s11
     244:	ee40 7a06 	vmla.f32	s15, s0, s12
     248:	ee37 0ac7 	vsub.f32	s0, s15, s14
     24c:	4770      	bx	lr
     24e:	ed9f 0a24 	vldr	s0, [pc, #144]	; 2e0 <aec_flog+0x128>
     252:	4770      	bx	lr
     254:	ed9f 0a23 	vldr	s0, [pc, #140]	; 2e4 <aec_flog+0x12c>
     258:	4770      	bx	lr
     25a:	eeb6 7a00 	vmov.f32	s14, #96	; 0x60
     25e:	ee20 0a07 	vmul.f32	s0, s0, s14
     262:	eeb4 0ae7 	vcmpe.f32	s0, s15
     266:	eef1 fa10 	vmrs	APSR_nzcv, fpscr
     26a:	dd2a      	ble.n	2c2 <aec_flog+0x10a>
     26c:	2301      	movs	r3, #1
     26e:	ee20 0a07 	vmul.f32	s0, s0, s14
     272:	3301      	adds	r3, #1
     274:	eeb4 0ae7 	vcmpe.f32	s0, s15
     278:	eef1 fa10 	vmrs	APSR_nzcv, fpscr
     27c:	dcf7      	bgt.n	26e <aec_flog+0xb6>
     27e:	ee07 3a90 	vmov	s15, r3
     282:	ed9f 7a15 	vldr	s14, [pc, #84]	; 2d8 <aec_flog+0x120>
     286:	eef8 7ae7 	vcvt.f32.s32	s15, s15
     28a:	ee67 7a87 	vmul.f32	s15, s15, s14
     28e:	eeb7 7a00 	vmov.f32	s14, #112	; 0x70
     292:	ee30 0a47 	vsub.f32	s0, s0, s14
     296:	ed9f 6a11 	vldr	s12, [pc, #68]	; 2dc <aec_flog+0x124>
     29a:	eeb6 7a00 	vmov.f32	s14, #96	; 0x60
     29e:	ee60 6a40 	vnmul.f32	s13, s0, s0
     2a2:	eef0 5a40 	vmov.f32	s11, s0
     2a6:	ee46 5a87 	vmla.f32	s11, s13, s14
     2aa:	ee26 0ac0 	vnmul.f32	s0, s13, s0
     2ae:	eeb0 7a65 	vmov.f32	s14, s11
     2b2:	ee00 7a06 	vmla.f32	s14, s0, s12
     2b6:	ee37 0a27 	vadd.f32	s0, s14, s15
     2ba:	4770      	bx	lr
     2bc:	ed9f 7a0a 	vldr	s14, [pc, #40]	; 2e8 <aec_flog+0x130>
     2c0:	e7ae      	b.n	220 <aec_flog+0x68>
     2c2:	eddf 7a05 	vldr	s15, [pc, #20]	; 2d8 <aec_flog+0x120>
     2c6:	e7e2      	b.n	28e <aec_flog+0xd6>
     2c8:	ed9f 7a03 	vldr	s14, [pc, #12]	; 2d8 <aec_flog+0x120>
     2cc:	e7a8      	b.n	220 <aec_flog+0x68>
     2ce:	bf00      	nop
     2d0:	006ce3ee 	.word	0x006ce3ee
     2d4:	7cf0bdc2 	.word	0x7cf0bdc2
     2d8:	3f317218 	.word	0x3f317218
     2dc:	3eaaaaab 	.word	0x3eaaaaab
     2e0:	42aeff18 	.word	0x42aeff18
     2e4:	c2aeff18 	.word	0xc2aeff18
     2e8:	00000000 	.word	0x00000000

000002ec <aec_fexpint>:
     2ec:	eddf 7a86 	vldr	s15, [pc, #536]	; 508 <aec_fexpint+0x21c>
     2f0:	b508      	push	{r3, lr}
     2f2:	eeb0 7a40 	vmov.f32	s14, s0
     2f6:	eeb4 0ae7 	vcmpe.f32	s0, s15
     2fa:	eef1 fa10 	vmrs	APSR_nzcv, fpscr
     2fe:	d461      	bmi.n	3c4 <aec_fexpint+0xd8>
     300:	eddf 7a82 	vldr	s15, [pc, #520]	; 50c <aec_fexpint+0x220>
     304:	eeb4 0ae7 	vcmpe.f32	s0, s15
     308:	eef1 fa10 	vmrs	APSR_nzcv, fpscr
     30c:	d455      	bmi.n	3ba <aec_fexpint+0xce>
     30e:	eddf 7a80 	vldr	s15, [pc, #512]	; 510 <aec_fexpint+0x224>
     312:	eeb4 0ae7 	vcmpe.f32	s0, s15
     316:	eef1 fa10 	vmrs	APSR_nzcv, fpscr
     31a:	d459      	bmi.n	3d0 <aec_fexpint+0xe4>
     31c:	eddf 7a7d 	vldr	s15, [pc, #500]	; 514 <aec_fexpint+0x228>
     320:	eef1 6a40 	vneg.f32	s13, s0
     324:	eef4 6ae7 	vcmpe.f32	s13, s15
     328:	eef1 fa10 	vmrs	APSR_nzcv, fpscr
     32c:	d44d      	bmi.n	3ca <aec_fexpint+0xde>
     32e:	eddf 7a7a 	vldr	s15, [pc, #488]	; 518 <aec_fexpint+0x22c>
     332:	eef4 6ae7 	vcmpe.f32	s13, s15
     336:	eef1 fa10 	vmrs	APSR_nzcv, fpscr
     33a:	dc4e      	bgt.n	3da <aec_fexpint+0xee>
     33c:	eef5 6ac0 	vcmpe.f32	s13, #0.0
     340:	eef1 fa10 	vmrs	APSR_nzcv, fpscr
     344:	dd5b      	ble.n	3fe <aec_fexpint+0x112>
     346:	eef6 7a00 	vmov.f32	s15, #96	; 0x60
     34a:	eef4 6ae7 	vcmpe.f32	s13, s15
     34e:	eef1 fa10 	vmrs	APSR_nzcv, fpscr
     352:	dd45      	ble.n	3e0 <aec_fexpint+0xf4>
     354:	eeb6 6a00 	vmov.f32	s12, #96	; 0x60
     358:	ee26 7a86 	vmul.f32	s14, s13, s12
     35c:	eeb4 7ac6 	vcmpe.f32	s14, s12
     360:	eef1 fa10 	vmrs	APSR_nzcv, fpscr
     364:	f340 80a8 	ble.w	4b8 <aec_fexpint+0x1cc>
     368:	2201      	movs	r2, #1
     36a:	eef6 7a00 	vmov.f32	s15, #96	; 0x60
     36e:	ee27 7a27 	vmul.f32	s14, s14, s15
     372:	3201      	adds	r2, #1
     374:	eeb6 6a00 	vmov.f32	s12, #96	; 0x60
     378:	eeb4 7ae7 	vcmpe.f32	s14, s15
     37c:	eef1 fa10 	vmrs	APSR_nzcv, fpscr
     380:	dcf5      	bgt.n	36e <aec_fexpint+0x82>
     382:	eef5 6ac0 	vcmpe.f32	s13, #0.0
     386:	eef1 fa10 	vmrs	APSR_nzcv, fpscr
     38a:	dd7f      	ble.n	48c <aec_fexpint+0x1a0>
     38c:	eef7 7a00 	vmov.f32	s15, #112	; 0x70
     390:	ee27 0a07 	vmul.f32	s0, s14, s14
     394:	ee77 7a27 	vadd.f32	s15, s14, s15
     398:	eddf 6a60 	vldr	s13, [pc, #384]	; 51c <aec_fexpint+0x230>
     39c:	ee40 7a06 	vmla.f32	s15, s0, s12
     3a0:	ee27 0a00 	vmul.f32	s0, s14, s0
     3a4:	ee40 7a26 	vmla.f32	s15, s0, s13
     3a8:	eeb0 0a67 	vmov.f32	s0, s15
     3ac:	2301      	movs	r3, #1
     3ae:	3301      	adds	r3, #1
     3b0:	ee20 0a00 	vmul.f32	s0, s0, s0
     3b4:	4293      	cmp	r3, r2
     3b6:	ddfa      	ble.n	3ae <aec_fexpint+0xc2>
     3b8:	bd08      	pop	{r3, pc}
     3ba:	f7ff fffe 	bl	1b8 <aec_flog>
			3ba: R_ARM_THM_CALL	aec_flog
     3be:	eeb1 0a40 	vneg.f32	s0, s0
     3c2:	bd08      	pop	{r3, pc}
     3c4:	ed9f 0a56 	vldr	s0, [pc, #344]	; 520 <aec_fexpint+0x234>
     3c8:	bd08      	pop	{r3, pc}
     3ca:	ed9f 0a56 	vldr	s0, [pc, #344]	; 524 <aec_fexpint+0x238>
     3ce:	bd08      	pop	{r3, pc}
     3d0:	eddf 7a55 	vldr	s15, [pc, #340]	; 528 <aec_fexpint+0x23c>
     3d4:	ee87 0a80 	vdiv.f32	s0, s15, s0
     3d8:	bd08      	pop	{r3, pc}
     3da:	ed9f 0a54 	vldr	s0, [pc, #336]	; 52c <aec_fexpint+0x240>
     3de:	bd08      	pop	{r3, pc}
     3e0:	eeb7 0a00 	vmov.f32	s0, #112	; 0x70
     3e4:	ee26 7aa6 	vmul.f32	s14, s13, s13
     3e8:	ee36 0a80 	vadd.f32	s0, s13, s0
     3ec:	ed9f 6a4b 	vldr	s12, [pc, #300]	; 51c <aec_fexpint+0x230>
     3f0:	ee66 6a87 	vmul.f32	s13, s13, s14
     3f4:	ee07 0a27 	vmla.f32	s0, s14, s15
     3f8:	ee06 0a86 	vmla.f32	s0, s13, s12
     3fc:	bd08      	pop	{r3, pc}
     3fe:	eefe 7a00 	vmov.f32	s15, #224	; 0xe0
     402:	eef4 6ae7 	vcmpe.f32	s13, s15
     406:	eef1 fa10 	vmrs	APSR_nzcv, fpscr
     40a:	eef5 6ac0 	vcmpe.f32	s13, #0.0
     40e:	d418      	bmi.n	442 <aec_fexpint+0x156>
     410:	eef1 fa10 	vmrs	APSR_nzcv, fpscr
     414:	dc66      	bgt.n	4e4 <aec_fexpint+0x1f8>
     416:	bfd8      	it	le
     418:	2200      	movle	r2, #0
     41a:	dd39      	ble.n	490 <aec_fexpint+0x1a4>
     41c:	eef7 7a00 	vmov.f32	s15, #112	; 0x70
     420:	ee67 6a07 	vmul.f32	s13, s14, s14
     424:	ee77 7a27 	vadd.f32	s15, s14, s15
     428:	eef6 5a00 	vmov.f32	s11, #96	; 0x60
     42c:	ed9f 6a3b 	vldr	s12, [pc, #236]	; 51c <aec_fexpint+0x230>
     430:	ee27 0a26 	vmul.f32	s0, s14, s13
     434:	ee46 7aa5 	vmla.f32	s15, s13, s11
     438:	ee40 7a06 	vmla.f32	s15, s0, s12
     43c:	eeb0 0a67 	vmov.f32	s0, s15
     440:	bd08      	pop	{r3, pc}
     442:	eef1 fa10 	vmrs	APSR_nzcv, fpscr
     446:	dc85      	bgt.n	354 <aec_fexpint+0x68>
     448:	eef6 7a00 	vmov.f32	s15, #96	; 0x60
     44c:	ee20 7a27 	vmul.f32	s14, s0, s15
     450:	eeb4 7ae7 	vcmpe.f32	s14, s15
     454:	eef1 fa10 	vmrs	APSR_nzcv, fpscr
     458:	dc86      	bgt.n	368 <aec_fexpint+0x7c>
     45a:	eef5 6ac0 	vcmpe.f32	s13, #0.0
     45e:	eef1 fa10 	vmrs	APSR_nzcv, fpscr
     462:	dd3b      	ble.n	4dc <aec_fexpint+0x1f0>
     464:	eef7 7a00 	vmov.f32	s15, #112	; 0x70
     468:	2201      	movs	r2, #1
     46a:	ee67 6a07 	vmul.f32	s13, s14, s14
     46e:	ee77 7a27 	vadd.f32	s15, s14, s15
     472:	eef6 5a00 	vmov.f32	s11, #96	; 0x60
     476:	ed9f 6a29 	vldr	s12, [pc, #164]	; 51c <aec_fexpint+0x230>
     47a:	ee27 0a26 	vmul.f32	s0, s14, s13
     47e:	ee46 7aa5 	vmla.f32	s15, s13, s11
     482:	ee40 7a06 	vmla.f32	s15, s0, s12
     486:	eeb0 0a67 	vmov.f32	s0, s15
     48a:	e78f      	b.n	3ac <aec_fexpint+0xc0>
     48c:	eef1 6a47 	vneg.f32	s13, s14
     490:	eef7 7a00 	vmov.f32	s15, #112	; 0x70
     494:	ee37 0ac7 	vsub.f32	s0, s15, s14
     498:	eeb6 6a00 	vmov.f32	s12, #96	; 0x60
     49c:	ee66 7aa6 	vmul.f32	s15, s13, s13
     4a0:	ed9f 7a1e 	vldr	s14, [pc, #120]	; 51c <aec_fexpint+0x230>
     4a4:	ee07 0a86 	vmla.f32	s0, s15, s12
     4a8:	ee66 6aa7 	vmul.f32	s13, s13, s15
     4ac:	ee06 0a87 	vmla.f32	s0, s13, s14
     4b0:	2a00      	cmp	r2, #0
     4b2:	f47f af7b 	bne.w	3ac <aec_fexpint+0xc0>
     4b6:	bd08      	pop	{r3, pc}
     4b8:	eef7 7a00 	vmov.f32	s15, #112	; 0x70
     4bc:	2201      	movs	r2, #1
     4be:	ee67 6a07 	vmul.f32	s13, s14, s14
     4c2:	ee77 7a27 	vadd.f32	s15, s14, s15
     4c6:	eddf 5a15 	vldr	s11, [pc, #84]	; 51c <aec_fexpint+0x230>
     4ca:	ee27 0a26 	vmul.f32	s0, s14, s13
     4ce:	ee46 7a86 	vmla.f32	s15, s13, s12
     4d2:	ee40 7a25 	vmla.f32	s15, s0, s11
     4d6:	eeb0 0a67 	vmov.f32	s0, s15
     4da:	e767      	b.n	3ac <aec_fexpint+0xc0>
     4dc:	2201      	movs	r2, #1
     4de:	eef1 6a47 	vneg.f32	s13, s14
     4e2:	e7d5      	b.n	490 <aec_fexpint+0x1a4>
     4e4:	eef7 7a00 	vmov.f32	s15, #112	; 0x70
     4e8:	ee37 0ac0 	vsub.f32	s0, s15, s0
     4ec:	eeb6 6a00 	vmov.f32	s12, #96	; 0x60
     4f0:	ee66 7aa6 	vmul.f32	s15, s13, s13
     4f4:	ed9f 7a09 	vldr	s14, [pc, #36]	; 51c <aec_fexpint+0x230>
     4f8:	ee07 0a86 	vmla.f32	s0, s15, s12
     4fc:	ee66 6aa7 	vmul.f32	s13, s13, s15
     500:	ee06 0a87 	vmla.f32	s0, s13, s14
     504:	bd08      	pop	{r3, pc}
     506:	bf00      	nop
     508:	02081cea 	.word	0x02081cea
     50c:	3e3da512 	.word	0x3e3da512
     510:	3fe28f5c 	.word	0x3fe28f5c
     514:	c2ac0000 	.word	0xc2ac0000
     518:	42ae0000 	.word	0x42ae0000
     51c:	3e2aaaab 	.word	0x3e2aaaab
     520:	42aa0000 	.word	0x42aa0000
     524:	01739361 	.word	0x01739361
     528:	3e99999a 	.word	0x3e99999a
     52c:	7e36d809 	.word	0x7e36d809

00000530 <aec_flog10>:
     530:	eddf 7a49 	vldr	s15, [pc, #292]	; 658 <aec_flog10+0x128>
     534:	eeb4 0ae7 	vcmpe.f32	s0, s15
     538:	eef1 fa10 	vmrs	APSR_nzcv, fpscr
     53c:	d94a      	bls.n	5d4 <aec_flog10+0xa4>
     53e:	eddf 7a47 	vldr	s15, [pc, #284]	; 65c <aec_flog10+0x12c>
     542:	eeb4 0ae7 	vcmpe.f32	s0, s15
     546:	eef1 fa10 	vmrs	APSR_nzcv, fpscr
     54a:	dc40      	bgt.n	5ce <aec_flog10+0x9e>
     54c:	eef7 7a08 	vmov.f32	s15, #120	; 0x78
     550:	eeb4 0ae7 	vcmpe.f32	s0, s15
     554:	eef1 fa10 	vmrs	APSR_nzcv, fpscr
     558:	dc3f      	bgt.n	5da <aec_flog10+0xaa>
     55a:	eef6 7a00 	vmov.f32	s15, #96	; 0x60
     55e:	eeb4 0ae7 	vcmpe.f32	s0, s15
     562:	eef1 fa10 	vmrs	APSR_nzcv, fpscr
     566:	d56d      	bpl.n	644 <aec_flog10+0x114>
     568:	ee30 0a00 	vadd.f32	s0, s0, s0
     56c:	eeb4 0ae7 	vcmpe.f32	s0, s15
     570:	eef1 fa10 	vmrs	APSR_nzcv, fpscr
     574:	d56c      	bpl.n	650 <aec_flog10+0x120>
     576:	2301      	movs	r3, #1
     578:	ee30 0a00 	vadd.f32	s0, s0, s0
     57c:	3301      	adds	r3, #1
     57e:	eeb4 0ae7 	vcmpe.f32	s0, s15
     582:	eef1 fa10 	vmrs	APSR_nzcv, fpscr
     586:	d4f7      	bmi.n	578 <aec_flog10+0x48>
     588:	ee07 3a90 	vmov	s15, r3
     58c:	eddf 6a34 	vldr	s13, [pc, #208]	; 660 <aec_flog10+0x130>
     590:	eef8 7ae7 	vcvt.f32.s32	s15, s15
     594:	ee67 6aa6 	vmul.f32	s13, s15, s13
     598:	eef7 7a00 	vmov.f32	s15, #112	; 0x70
     59c:	ee30 0a67 	vsub.f32	s0, s0, s15
     5a0:	eddf 5a30 	vldr	s11, [pc, #192]	; 664 <aec_flog10+0x134>
     5a4:	eef6 7a00 	vmov.f32	s15, #96	; 0x60
     5a8:	ed9f 6a2f 	vldr	s12, [pc, #188]	; 668 <aec_flog10+0x138>
     5ac:	ee20 7a40 	vnmul.f32	s14, s0, s0
     5b0:	eeb0 5a40 	vmov.f32	s10, s0
     5b4:	ee07 5a27 	vmla.f32	s10, s14, s15
     5b8:	ee27 0a40 	vnmul.f32	s0, s14, s0
     5bc:	eef0 7a45 	vmov.f32	s15, s10
     5c0:	ee40 7a25 	vmla.f32	s15, s0, s11
     5c4:	ee77 7ae6 	vsub.f32	s15, s15, s13
     5c8:	ee27 0a86 	vmul.f32	s0, s15, s12
     5cc:	4770      	bx	lr
     5ce:	ed9f 0a27 	vldr	s0, [pc, #156]	; 66c <aec_flog10+0x13c>
     5d2:	4770      	bx	lr
     5d4:	ed9f 0a26 	vldr	s0, [pc, #152]	; 670 <aec_flog10+0x140>
     5d8:	4770      	bx	lr
     5da:	eeb6 7a00 	vmov.f32	s14, #96	; 0x60
     5de:	ee20 0a07 	vmul.f32	s0, s0, s14
     5e2:	eeb4 0ae7 	vcmpe.f32	s0, s15
     5e6:	eef1 fa10 	vmrs	APSR_nzcv, fpscr
     5ea:	dd2e      	ble.n	64a <aec_flog10+0x11a>
     5ec:	2301      	movs	r3, #1
     5ee:	ee20 0a07 	vmul.f32	s0, s0, s14
     5f2:	3301      	adds	r3, #1
     5f4:	eeb4 0ae7 	vcmpe.f32	s0, s15
     5f8:	eef1 fa10 	vmrs	APSR_nzcv, fpscr
     5fc:	dcf7      	bgt.n	5ee <aec_flog10+0xbe>
     5fe:	ee07 3a90 	vmov	s15, r3
     602:	ed9f 7a17 	vldr	s14, [pc, #92]	; 660 <aec_flog10+0x130>
     606:	eef8 7ae7 	vcvt.f32.s32	s15, s15
     60a:	ee67 7a87 	vmul.f32	s15, s15, s14
     60e:	eeb7 7a00 	vmov.f32	s14, #112	; 0x70
     612:	ee30 0a47 	vsub.f32	s0, s0, s14
     616:	eddf 5a13 	vldr	s11, [pc, #76]	; 664 <aec_flog10+0x134>
     61a:	eeb6 7a00 	vmov.f32	s14, #96	; 0x60
     61e:	ed9f 6a12 	vldr	s12, [pc, #72]	; 668 <aec_flog10+0x138>
     622:	ee60 6a40 	vnmul.f32	s13, s0, s0
     626:	eeb0 5a40 	vmov.f32	s10, s0
     62a:	ee06 5a87 	vmla.f32	s10, s13, s14
     62e:	ee26 0ac0 	vnmul.f32	s0, s13, s0
     632:	eeb0 7a45 	vmov.f32	s14, s10
     636:	ee00 7a25 	vmla.f32	s14, s0, s11
     63a:	ee77 7a27 	vadd.f32	s15, s14, s15
     63e:	ee27 0a86 	vmul.f32	s0, s15, s12
     642:	4770      	bx	lr
     644:	eddf 6a0b 	vldr	s13, [pc, #44]	; 674 <aec_flog10+0x144>
     648:	e7a6      	b.n	598 <aec_flog10+0x68>
     64a:	eddf 7a05 	vldr	s15, [pc, #20]	; 660 <aec_flog10+0x130>
     64e:	e7de      	b.n	60e <aec_flog10+0xde>
     650:	eddf 6a03 	vldr	s13, [pc, #12]	; 660 <aec_flog10+0x130>
     654:	e7a0      	b.n	598 <aec_flog10+0x68>
     656:	bf00      	nop
     658:	006ce3ee 	.word	0x006ce3ee
     65c:	7cf0bdc2 	.word	0x7cf0bdc2
     660:	3f317218 	.word	0x3f317218
     664:	3eaaaaab 	.word	0x3eaaaaab
     668:	3ede5bd9 	.word	0x3ede5bd9
     66c:	42180000 	.word	0x42180000
     670:	c2180000 	.word	0xc2180000
     674:	00000000 	.word	0x00000000

00000678 <aec_flog2>:
     678:	2801      	cmp	r0, #1
     67a:	dd06      	ble.n	68a <aec_flog2+0x12>
     67c:	4603      	mov	r3, r0
     67e:	2000      	movs	r0, #0
     680:	105b      	asrs	r3, r3, #1
     682:	3001      	adds	r0, #1
     684:	2b01      	cmp	r3, #1
     686:	d1fb      	bne.n	680 <aec_flog2+0x8>
     688:	4770      	bx	lr
     68a:	2000      	movs	r0, #0
     68c:	4770      	bx	lr
     68e:	bf00      	nop

00000690 <aec_fpow>:
     690:	eddf 7ab1 	vldr	s15, [pc, #708]	; 958 <aec_fpow+0x2c8>
     694:	eeb4 0ae7 	vcmpe.f32	s0, s15
     698:	eef1 fa10 	vmrs	APSR_nzcv, fpscr
     69c:	f240 8097 	bls.w	7ce <aec_fpow+0x13e>
     6a0:	eddf 7aae 	vldr	s15, [pc, #696]	; 95c <aec_fpow+0x2cc>
     6a4:	eeb4 0ae7 	vcmpe.f32	s0, s15
     6a8:	eef1 fa10 	vmrs	APSR_nzcv, fpscr
     6ac:	dc3f      	bgt.n	72e <aec_fpow+0x9e>
     6ae:	eef7 7a08 	vmov.f32	s15, #120	; 0x78
     6b2:	eeb4 0ae7 	vcmpe.f32	s0, s15
     6b6:	eef1 fa10 	vmrs	APSR_nzcv, fpscr
     6ba:	f300 8091 	bgt.w	7e0 <aec_fpow+0x150>
     6be:	eef6 7a00 	vmov.f32	s15, #96	; 0x60
     6c2:	eeb4 0ae7 	vcmpe.f32	s0, s15
     6c6:	eef1 fa10 	vmrs	APSR_nzcv, fpscr
     6ca:	f140 8117 	bpl.w	8fc <aec_fpow+0x26c>
     6ce:	ee30 0a00 	vadd.f32	s0, s0, s0
     6d2:	eeb4 0ae7 	vcmpe.f32	s0, s15
     6d6:	eef1 fa10 	vmrs	APSR_nzcv, fpscr
     6da:	f140 8128 	bpl.w	92e <aec_fpow+0x29e>
     6de:	2301      	movs	r3, #1
     6e0:	ee30 0a00 	vadd.f32	s0, s0, s0
     6e4:	3301      	adds	r3, #1
     6e6:	eeb4 0ae7 	vcmpe.f32	s0, s15
     6ea:	eef1 fa10 	vmrs	APSR_nzcv, fpscr
     6ee:	d4f7      	bmi.n	6e0 <aec_fpow+0x50>
     6f0:	ee07 3a90 	vmov	s15, r3
     6f4:	ed9f 7a9a 	vldr	s14, [pc, #616]	; 960 <aec_fpow+0x2d0>
     6f8:	eef8 7ae7 	vcvt.f32.s32	s15, s15
     6fc:	ee27 7a87 	vmul.f32	s14, s15, s14
     700:	eef7 7a00 	vmov.f32	s15, #112	; 0x70
     704:	ee30 0a67 	vsub.f32	s0, s0, s15
     708:	ed9f 6a96 	vldr	s12, [pc, #600]	; 964 <aec_fpow+0x2d4>
     70c:	eef6 7a00 	vmov.f32	s15, #96	; 0x60
     710:	ee60 6a40 	vnmul.f32	s13, s0, s0
     714:	eef0 5a40 	vmov.f32	s11, s0
     718:	ee46 5aa7 	vmla.f32	s11, s13, s15
     71c:	ee26 0ac0 	vnmul.f32	s0, s13, s0
     720:	eef0 7a65 	vmov.f32	s15, s11
     724:	ee40 7a06 	vmla.f32	s15, s0, s12
     728:	ee77 7ac7 	vsub.f32	s15, s15, s14
     72c:	e001      	b.n	732 <aec_fpow+0xa2>
     72e:	eddf 7a8e 	vldr	s15, [pc, #568]	; 968 <aec_fpow+0x2d8>
     732:	ee60 0aa7 	vmul.f32	s1, s1, s15
     736:	eddf 7a8d 	vldr	s15, [pc, #564]	; 96c <aec_fpow+0x2dc>
     73a:	eef4 0ae7 	vcmpe.f32	s1, s15
     73e:	eef1 fa10 	vmrs	APSR_nzcv, fpscr
     742:	d447      	bmi.n	7d4 <aec_fpow+0x144>
     744:	eddf 7a8a 	vldr	s15, [pc, #552]	; 970 <aec_fpow+0x2e0>
     748:	eef4 0ae7 	vcmpe.f32	s1, s15
     74c:	eef1 fa10 	vmrs	APSR_nzcv, fpscr
     750:	dc43      	bgt.n	7da <aec_fpow+0x14a>
     752:	eef5 0ac0 	vcmpe.f32	s1, #0.0
     756:	eef1 fa10 	vmrs	APSR_nzcv, fpscr
     75a:	f340 8082 	ble.w	862 <aec_fpow+0x1d2>
     75e:	eeb6 7a00 	vmov.f32	s14, #96	; 0x60
     762:	eef4 0ac7 	vcmpe.f32	s1, s14
     766:	eef1 fa10 	vmrs	APSR_nzcv, fpscr
     76a:	dd6b      	ble.n	844 <aec_fpow+0x1b4>
     76c:	eef6 6a00 	vmov.f32	s13, #96	; 0x60
     770:	ee20 7aa6 	vmul.f32	s14, s1, s13
     774:	eeb4 7ae6 	vcmpe.f32	s14, s13
     778:	eef1 fa10 	vmrs	APSR_nzcv, fpscr
     77c:	f340 80ac 	ble.w	8d8 <aec_fpow+0x248>
     780:	2201      	movs	r2, #1
     782:	eef6 7a00 	vmov.f32	s15, #96	; 0x60
     786:	ee27 7a27 	vmul.f32	s14, s14, s15
     78a:	3201      	adds	r2, #1
     78c:	eef6 6a00 	vmov.f32	s13, #96	; 0x60
     790:	eeb4 7ae7 	vcmpe.f32	s14, s15
     794:	eef1 fa10 	vmrs	APSR_nzcv, fpscr
     798:	dcf5      	bgt.n	786 <aec_fpow+0xf6>
     79a:	eef5 0ac0 	vcmpe.f32	s1, #0.0
     79e:	eef1 fa10 	vmrs	APSR_nzcv, fpscr
     7a2:	dd6f      	ble.n	884 <aec_fpow+0x1f4>
     7a4:	eef7 7a00 	vmov.f32	s15, #112	; 0x70
     7a8:	ee37 0a27 	vadd.f32	s0, s14, s15
     7ac:	ed9f 6a71 	vldr	s12, [pc, #452]	; 974 <aec_fpow+0x2e4>
     7b0:	ee67 7a07 	vmul.f32	s15, s14, s14
     7b4:	ee07 0aa6 	vmla.f32	s0, s15, s13
     7b8:	ee27 7a27 	vmul.f32	s14, s14, s15
     7bc:	ee07 0a06 	vmla.f32	s0, s14, s12
     7c0:	2301      	movs	r3, #1
     7c2:	3301      	adds	r3, #1
     7c4:	ee20 0a00 	vmul.f32	s0, s0, s0
     7c8:	4293      	cmp	r3, r2
     7ca:	ddfa      	ble.n	7c2 <aec_fpow+0x132>
     7cc:	4770      	bx	lr
     7ce:	eddf 7a6a 	vldr	s15, [pc, #424]	; 978 <aec_fpow+0x2e8>
     7d2:	e7ae      	b.n	732 <aec_fpow+0xa2>
     7d4:	ed9f 0a69 	vldr	s0, [pc, #420]	; 97c <aec_fpow+0x2ec>
     7d8:	4770      	bx	lr
     7da:	ed9f 0a69 	vldr	s0, [pc, #420]	; 980 <aec_fpow+0x2f0>
     7de:	4770      	bx	lr
     7e0:	eeb6 7a00 	vmov.f32	s14, #96	; 0x60
     7e4:	ee20 0a07 	vmul.f32	s0, s0, s14
     7e8:	eeb4 0ae7 	vcmpe.f32	s0, s15
     7ec:	eef1 fa10 	vmrs	APSR_nzcv, fpscr
     7f0:	f340 809a 	ble.w	928 <aec_fpow+0x298>
     7f4:	2301      	movs	r3, #1
     7f6:	ee20 0a07 	vmul.f32	s0, s0, s14
     7fa:	3301      	adds	r3, #1
     7fc:	eeb4 0ae7 	vcmpe.f32	s0, s15
     800:	eef1 fa10 	vmrs	APSR_nzcv, fpscr
     804:	dcf7      	bgt.n	7f6 <aec_fpow+0x166>
     806:	ee07 3a90 	vmov	s15, r3
     80a:	ed9f 7a55 	vldr	s14, [pc, #340]	; 960 <aec_fpow+0x2d0>
     80e:	eef8 7ae7 	vcvt.f32.s32	s15, s15
     812:	ee27 7a87 	vmul.f32	s14, s15, s14
     816:	eef7 7a00 	vmov.f32	s15, #112	; 0x70
     81a:	ee30 0a67 	vsub.f32	s0, s0, s15
     81e:	ed9f 6a51 	vldr	s12, [pc, #324]	; 964 <aec_fpow+0x2d4>
     822:	eef6 7a00 	vmov.f32	s15, #96	; 0x60
     826:	ee60 6a40 	vnmul.f32	s13, s0, s0
     82a:	eef0 5a40 	vmov.f32	s11, s0
     82e:	ee46 5aa7 	vmla.f32	s11, s13, s15
     832:	ee26 0ac0 	vnmul.f32	s0, s13, s0
     836:	eef0 7a65 	vmov.f32	s15, s11
     83a:	ee40 7a06 	vmla.f32	s15, s0, s12
     83e:	ee77 7a87 	vadd.f32	s15, s15, s14
     842:	e776      	b.n	732 <aec_fpow+0xa2>
     844:	eeb7 0a00 	vmov.f32	s0, #112	; 0x70
     848:	ee60 7aa0 	vmul.f32	s15, s1, s1
     84c:	ee30 0a80 	vadd.f32	s0, s1, s0
     850:	eddf 6a48 	vldr	s13, [pc, #288]	; 974 <aec_fpow+0x2e4>
     854:	ee07 0a87 	vmla.f32	s0, s15, s14
     858:	ee60 7aa7 	vmul.f32	s15, s1, s15
     85c:	ee07 0aa6 	vmla.f32	s0, s15, s13
     860:	4770      	bx	lr
     862:	eefe 7a00 	vmov.f32	s15, #224	; 0xe0
     866:	eef4 0ae7 	vcmpe.f32	s1, s15
     86a:	eef1 fa10 	vmrs	APSR_nzcv, fpscr
     86e:	eef5 0ac0 	vcmpe.f32	s1, #0.0
     872:	d41c      	bmi.n	8ae <aec_fpow+0x21e>
     874:	eef1 fa10 	vmrs	APSR_nzcv, fpscr
     878:	dc5c      	bgt.n	934 <aec_fpow+0x2a4>
     87a:	eeb1 7a60 	vneg.f32	s14, s1
     87e:	bfd8      	it	le
     880:	2200      	movle	r2, #0
     882:	dc3e      	bgt.n	902 <aec_fpow+0x272>
     884:	eef1 6a47 	vneg.f32	s13, s14
     888:	eef7 7a00 	vmov.f32	s15, #112	; 0x70
     88c:	ee37 0ac7 	vsub.f32	s0, s15, s14
     890:	ee26 6aa6 	vmul.f32	s12, s13, s13
     894:	eeb6 7a00 	vmov.f32	s14, #96	; 0x60
     898:	eddf 7a36 	vldr	s15, [pc, #216]	; 974 <aec_fpow+0x2e4>
     89c:	ee06 0a07 	vmla.f32	s0, s12, s14
     8a0:	ee66 6a86 	vmul.f32	s13, s13, s12
     8a4:	ee06 0aa7 	vmla.f32	s0, s13, s15
     8a8:	2a00      	cmp	r2, #0
     8aa:	d189      	bne.n	7c0 <aec_fpow+0x130>
     8ac:	4770      	bx	lr
     8ae:	eef1 fa10 	vmrs	APSR_nzcv, fpscr
     8b2:	f73f af5b 	bgt.w	76c <aec_fpow+0xdc>
     8b6:	eef6 6a00 	vmov.f32	s13, #96	; 0x60
     8ba:	ee20 7ae6 	vnmul.f32	s14, s1, s13
     8be:	eeb4 7ae6 	vcmpe.f32	s14, s13
     8c2:	eef1 fa10 	vmrs	APSR_nzcv, fpscr
     8c6:	f73f af5b 	bgt.w	780 <aec_fpow+0xf0>
     8ca:	eef5 0ac0 	vcmpe.f32	s1, #0.0
     8ce:	eef1 fa10 	vmrs	APSR_nzcv, fpscr
     8d2:	bfd8      	it	le
     8d4:	2201      	movle	r2, #1
     8d6:	ddd5      	ble.n	884 <aec_fpow+0x1f4>
     8d8:	eef7 7a00 	vmov.f32	s15, #112	; 0x70
     8dc:	2201      	movs	r2, #1
     8de:	ee27 6a07 	vmul.f32	s12, s14, s14
     8e2:	ee77 7a27 	vadd.f32	s15, s14, s15
     8e6:	eddf 5a23 	vldr	s11, [pc, #140]	; 974 <aec_fpow+0x2e4>
     8ea:	ee27 7a06 	vmul.f32	s14, s14, s12
     8ee:	ee46 7a26 	vmla.f32	s15, s12, s13
     8f2:	ee47 7a25 	vmla.f32	s15, s14, s11
     8f6:	eeb0 0a67 	vmov.f32	s0, s15
     8fa:	e761      	b.n	7c0 <aec_fpow+0x130>
     8fc:	ed9f 7a21 	vldr	s14, [pc, #132]	; 984 <aec_fpow+0x2f4>
     900:	e6fe      	b.n	700 <aec_fpow+0x70>
     902:	eef7 7a00 	vmov.f32	s15, #112	; 0x70
     906:	ee67 6a07 	vmul.f32	s13, s14, s14
     90a:	ee77 7ae0 	vsub.f32	s15, s15, s1
     90e:	eef6 5a00 	vmov.f32	s11, #96	; 0x60
     912:	ed9f 6a18 	vldr	s12, [pc, #96]	; 974 <aec_fpow+0x2e4>
     916:	ee27 7a26 	vmul.f32	s14, s14, s13
     91a:	ee46 7aa5 	vmla.f32	s15, s13, s11
     91e:	ee47 7a06 	vmla.f32	s15, s14, s12
     922:	eeb0 0a67 	vmov.f32	s0, s15
     926:	4770      	bx	lr
     928:	ed9f 7a0d 	vldr	s14, [pc, #52]	; 960 <aec_fpow+0x2d0>
     92c:	e773      	b.n	816 <aec_fpow+0x186>
     92e:	ed9f 7a0c 	vldr	s14, [pc, #48]	; 960 <aec_fpow+0x2d0>
     932:	e6e5      	b.n	700 <aec_fpow+0x70>
     934:	eeb7 0a00 	vmov.f32	s0, #112	; 0x70
     938:	ee60 7aa0 	vmul.f32	s15, s1, s1
     93c:	ee30 0a80 	vadd.f32	s0, s1, s0
     940:	eef6 6a00 	vmov.f32	s13, #96	; 0x60
     944:	ed9f 7a0b 	vldr	s14, [pc, #44]	; 974 <aec_fpow+0x2e4>
     948:	ee07 0aa6 	vmla.f32	s0, s15, s13
     94c:	ee60 7aa7 	vmul.f32	s15, s1, s15
     950:	ee07 0a87 	vmla.f32	s0, s15, s14
     954:	4770      	bx	lr
     956:	bf00      	nop
     958:	006ce3ee 	.word	0x006ce3ee
     95c:	7cf0bdc2 	.word	0x7cf0bdc2
     960:	3f317218 	.word	0x3f317218
     964:	3eaaaaab 	.word	0x3eaaaaab
     968:	42aeff18 	.word	0x42aeff18
     96c:	c2ac0000 	.word	0xc2ac0000
     970:	42ae0000 	.word	0x42ae0000
     974:	3e2aaaab 	.word	0x3e2aaaab
     978:	c2aeff18 	.word	0xc2aeff18
     97c:	01739361 	.word	0x01739361
     980:	7e36d809 	.word	0x7e36d809
     984:	00000000 	.word	0x00000000

00000988 <aec_fpow2powerOf2>:
     988:	2801      	cmp	r0, #1
     98a:	dd04      	ble.n	996 <aec_fpow2powerOf2+0xe>
     98c:	1040      	asrs	r0, r0, #1
     98e:	ee20 0a00 	vmul.f32	s0, s0, s0
     992:	2801      	cmp	r0, #1
     994:	d1fa      	bne.n	98c <aec_fpow2powerOf2+0x4>
     996:	4770      	bx	lr

00000998 <aec_fsqrt>:
     998:	eddf 7aaa 	vldr	s15, [pc, #680]	; c44 <aec_fsqrt+0x2ac>
     99c:	eeb4 0ae7 	vcmpe.f32	s0, s15
     9a0:	eef1 fa10 	vmrs	APSR_nzcv, fpscr
     9a4:	d979      	bls.n	a9a <aec_fsqrt+0x102>
     9a6:	eddf 7aa8 	vldr	s15, [pc, #672]	; c48 <aec_fsqrt+0x2b0>
     9aa:	eeb4 0ae7 	vcmpe.f32	s0, s15
     9ae:	eef1 fa10 	vmrs	APSR_nzcv, fpscr
     9b2:	dc3f      	bgt.n	a34 <aec_fsqrt+0x9c>
     9b4:	eef7 7a08 	vmov.f32	s15, #120	; 0x78
     9b8:	eeb4 0ae7 	vcmpe.f32	s0, s15
     9bc:	eef1 fa10 	vmrs	APSR_nzcv, fpscr
     9c0:	f300 8090 	bgt.w	ae4 <aec_fsqrt+0x14c>
     9c4:	eef6 7a00 	vmov.f32	s15, #96	; 0x60
     9c8:	eeb4 0ae7 	vcmpe.f32	s0, s15
     9cc:	eef1 fa10 	vmrs	APSR_nzcv, fpscr
     9d0:	f140 811b 	bpl.w	c0a <aec_fsqrt+0x272>
     9d4:	ee30 0a00 	vadd.f32	s0, s0, s0
     9d8:	eeb4 0ae7 	vcmpe.f32	s0, s15
     9dc:	eef1 fa10 	vmrs	APSR_nzcv, fpscr
     9e0:	f140 812c 	bpl.w	c3c <aec_fsqrt+0x2a4>
     9e4:	2301      	movs	r3, #1
     9e6:	ee30 0a00 	vadd.f32	s0, s0, s0
     9ea:	3301      	adds	r3, #1
     9ec:	eeb4 0ae7 	vcmpe.f32	s0, s15
     9f0:	eef1 fa10 	vmrs	APSR_nzcv, fpscr
     9f4:	d4f7      	bmi.n	9e6 <aec_fsqrt+0x4e>
     9f6:	ee07 3a90 	vmov	s15, r3
     9fa:	ed9f 7a94 	vldr	s14, [pc, #592]	; c4c <aec_fsqrt+0x2b4>
     9fe:	eef8 7ae7 	vcvt.f32.s32	s15, s15
     a02:	ee27 7a87 	vmul.f32	s14, s15, s14
     a06:	eef7 7a00 	vmov.f32	s15, #112	; 0x70
     a0a:	ee30 0a67 	vsub.f32	s0, s0, s15
     a0e:	ed9f 6a90 	vldr	s12, [pc, #576]	; c50 <aec_fsqrt+0x2b8>
     a12:	eef6 7a00 	vmov.f32	s15, #96	; 0x60
     a16:	ee60 6a40 	vnmul.f32	s13, s0, s0
     a1a:	eef0 5a40 	vmov.f32	s11, s0
     a1e:	ee46 5aa7 	vmla.f32	s11, s13, s15
     a22:	ee26 0ac0 	vnmul.f32	s0, s13, s0
     a26:	eef0 7a65 	vmov.f32	s15, s11
     a2a:	ee40 7a06 	vmla.f32	s15, s0, s12
     a2e:	ee77 7ac7 	vsub.f32	s15, s15, s14
     a32:	e088      	b.n	b46 <aec_fsqrt+0x1ae>
     a34:	ed9f 7a87 	vldr	s14, [pc, #540]	; c54 <aec_fsqrt+0x2bc>
     a38:	eeb6 6a00 	vmov.f32	s12, #96	; 0x60
     a3c:	ee67 6a06 	vmul.f32	s13, s14, s12
     a40:	eef4 6ac6 	vcmpe.f32	s13, s12
     a44:	eef1 fa10 	vmrs	APSR_nzcv, fpscr
     a48:	dd3a      	ble.n	ac0 <aec_fsqrt+0x128>
     a4a:	2201      	movs	r2, #1
     a4c:	eef6 7a00 	vmov.f32	s15, #96	; 0x60
     a50:	ee66 6aa7 	vmul.f32	s13, s13, s15
     a54:	3201      	adds	r2, #1
     a56:	eeb6 6a00 	vmov.f32	s12, #96	; 0x60
     a5a:	eef4 6ae7 	vcmpe.f32	s13, s15
     a5e:	eef1 fa10 	vmrs	APSR_nzcv, fpscr
     a62:	dcf5      	bgt.n	a50 <aec_fsqrt+0xb8>
     a64:	eeb5 7ac0 	vcmpe.f32	s14, #0.0
     a68:	eef1 fa10 	vmrs	APSR_nzcv, fpscr
     a6c:	f340 80b7 	ble.w	bde <aec_fsqrt+0x246>
     a70:	eef7 7a00 	vmov.f32	s15, #112	; 0x70
     a74:	ee36 0aa7 	vadd.f32	s0, s13, s15
     a78:	ed9f 7a77 	vldr	s14, [pc, #476]	; c58 <aec_fsqrt+0x2c0>
     a7c:	ee66 7aa6 	vmul.f32	s15, s13, s13
     a80:	ee07 0a86 	vmla.f32	s0, s15, s12
     a84:	ee66 6aa7 	vmul.f32	s13, s13, s15
     a88:	ee06 0a87 	vmla.f32	s0, s13, s14
     a8c:	2301      	movs	r3, #1
     a8e:	3301      	adds	r3, #1
     a90:	ee20 0a00 	vmul.f32	s0, s0, s0
     a94:	4293      	cmp	r3, r2
     a96:	ddfa      	ble.n	a8e <aec_fsqrt+0xf6>
     a98:	4770      	bx	lr
     a9a:	ed9f 7a70 	vldr	s14, [pc, #448]	; c5c <aec_fsqrt+0x2c4>
     a9e:	eeb6 6a00 	vmov.f32	s12, #96	; 0x60
     aa2:	ee67 6a46 	vnmul.f32	s13, s14, s12
     aa6:	eef4 6ac6 	vcmpe.f32	s13, s12
     aaa:	eef1 fa10 	vmrs	APSR_nzcv, fpscr
     aae:	dccc      	bgt.n	a4a <aec_fsqrt+0xb2>
     ab0:	eeb5 7ac0 	vcmpe.f32	s14, #0.0
     ab4:	eef1 fa10 	vmrs	APSR_nzcv, fpscr
     ab8:	bfd8      	it	le
     aba:	2201      	movle	r2, #1
     abc:	f340 808f 	ble.w	bde <aec_fsqrt+0x246>
     ac0:	eef7 7a00 	vmov.f32	s15, #112	; 0x70
     ac4:	2201      	movs	r2, #1
     ac6:	ee26 7aa6 	vmul.f32	s14, s13, s13
     aca:	ee76 7aa7 	vadd.f32	s15, s13, s15
     ace:	eddf 5a62 	vldr	s11, [pc, #392]	; c58 <aec_fsqrt+0x2c0>
     ad2:	ee66 6a87 	vmul.f32	s13, s13, s14
     ad6:	ee47 7a06 	vmla.f32	s15, s14, s12
     ada:	ee46 7aa5 	vmla.f32	s15, s13, s11
     ade:	eeb0 0a67 	vmov.f32	s0, s15
     ae2:	e7d3      	b.n	a8c <aec_fsqrt+0xf4>
     ae4:	eeb6 7a00 	vmov.f32	s14, #96	; 0x60
     ae8:	ee20 0a07 	vmul.f32	s0, s0, s14
     aec:	eeb4 0ae7 	vcmpe.f32	s0, s15
     af0:	eef1 fa10 	vmrs	APSR_nzcv, fpscr
     af4:	f340 809f 	ble.w	c36 <aec_fsqrt+0x29e>
     af8:	2301      	movs	r3, #1
     afa:	ee20 0a07 	vmul.f32	s0, s0, s14
     afe:	3301      	adds	r3, #1
     b00:	eeb4 0ae7 	vcmpe.f32	s0, s15
     b04:	eef1 fa10 	vmrs	APSR_nzcv, fpscr
     b08:	dcf7      	bgt.n	afa <aec_fsqrt+0x162>
     b0a:	ee07 3a90 	vmov	s15, r3
     b0e:	ed9f 7a4f 	vldr	s14, [pc, #316]	; c4c <aec_fsqrt+0x2b4>
     b12:	eef8 7ae7 	vcvt.f32.s32	s15, s15
     b16:	ee27 7a87 	vmul.f32	s14, s15, s14
     b1a:	eef7 7a00 	vmov.f32	s15, #112	; 0x70
     b1e:	ee30 0a67 	vsub.f32	s0, s0, s15
     b22:	ed9f 6a4b 	vldr	s12, [pc, #300]	; c50 <aec_fsqrt+0x2b8>
     b26:	eef6 7a00 	vmov.f32	s15, #96	; 0x60
     b2a:	ee60 6a40 	vnmul.f32	s13, s0, s0
     b2e:	eef0 5a40 	vmov.f32	s11, s0
     b32:	ee46 5aa7 	vmla.f32	s11, s13, s15
     b36:	ee26 0ac0 	vnmul.f32	s0, s13, s0
     b3a:	eef0 7a65 	vmov.f32	s15, s11
     b3e:	ee40 7a06 	vmla.f32	s15, s0, s12
     b42:	ee77 7a87 	vadd.f32	s15, s15, s14
     b46:	eef6 6a00 	vmov.f32	s13, #96	; 0x60
     b4a:	ed9f 6a45 	vldr	s12, [pc, #276]	; c60 <aec_fsqrt+0x2c8>
     b4e:	ee27 7aa6 	vmul.f32	s14, s15, s13
     b52:	eeb4 7ac6 	vcmpe.f32	s14, s12
     b56:	eef1 fa10 	vmrs	APSR_nzcv, fpscr
     b5a:	d427      	bmi.n	bac <aec_fsqrt+0x214>
     b5c:	eddf 7a41 	vldr	s15, [pc, #260]	; c64 <aec_fsqrt+0x2cc>
     b60:	eeb4 7ae7 	vcmpe.f32	s14, s15
     b64:	eef1 fa10 	vmrs	APSR_nzcv, fpscr
     b68:	dc23      	bgt.n	bb2 <aec_fsqrt+0x21a>
     b6a:	eeb5 7ac0 	vcmpe.f32	s14, #0.0
     b6e:	eef1 fa10 	vmrs	APSR_nzcv, fpscr
     b72:	dd21      	ble.n	bb8 <aec_fsqrt+0x220>
     b74:	eeb4 7ae6 	vcmpe.f32	s14, s13
     b78:	eef1 fa10 	vmrs	APSR_nzcv, fpscr
     b7c:	f73f af5c 	bgt.w	a38 <aec_fsqrt+0xa0>
     b80:	eeb5 7ac0 	vcmpe.f32	s14, #0.0
     b84:	eef1 fa10 	vmrs	APSR_nzcv, fpscr
     b88:	dd24      	ble.n	bd4 <aec_fsqrt+0x23c>
     b8a:	eeb7 0a00 	vmov.f32	s0, #112	; 0x70
     b8e:	ee67 7a07 	vmul.f32	s15, s14, s14
     b92:	ee37 0a00 	vadd.f32	s0, s14, s0
     b96:	eeb6 6a00 	vmov.f32	s12, #96	; 0x60
     b9a:	eddf 6a2f 	vldr	s13, [pc, #188]	; c58 <aec_fsqrt+0x2c0>
     b9e:	ee07 0a86 	vmla.f32	s0, s15, s12
     ba2:	ee67 7a27 	vmul.f32	s15, s14, s15
     ba6:	ee07 0aa6 	vmla.f32	s0, s15, s13
     baa:	4770      	bx	lr
     bac:	ed9f 0a2e 	vldr	s0, [pc, #184]	; c68 <aec_fsqrt+0x2d0>
     bb0:	4770      	bx	lr
     bb2:	ed9f 0a2e 	vldr	s0, [pc, #184]	; c6c <aec_fsqrt+0x2d4>
     bb6:	4770      	bx	lr
     bb8:	eefe 7a00 	vmov.f32	s15, #224	; 0xe0
     bbc:	eeb4 7ae7 	vcmpe.f32	s14, s15
     bc0:	eef1 fa10 	vmrs	APSR_nzcv, fpscr
     bc4:	d5dc      	bpl.n	b80 <aec_fsqrt+0x1e8>
     bc6:	eeb5 7ac0 	vcmpe.f32	s14, #0.0
     bca:	eef1 fa10 	vmrs	APSR_nzcv, fpscr
     bce:	f73f af33 	bgt.w	a38 <aec_fsqrt+0xa0>
     bd2:	e764      	b.n	a9e <aec_fsqrt+0x106>
     bd4:	eef1 6a47 	vneg.f32	s13, s14
     bd8:	bfd8      	it	le
     bda:	2200      	movle	r2, #0
     bdc:	dc18      	bgt.n	c10 <aec_fsqrt+0x278>
     bde:	eeb1 7a66 	vneg.f32	s14, s13
     be2:	2a00      	cmp	r2, #0
     be4:	eef7 7a00 	vmov.f32	s15, #112	; 0x70
     be8:	ee37 0ae6 	vsub.f32	s0, s15, s13
     bec:	ee27 6a07 	vmul.f32	s12, s14, s14
     bf0:	eef6 6a00 	vmov.f32	s13, #96	; 0x60
     bf4:	eddf 7a18 	vldr	s15, [pc, #96]	; c58 <aec_fsqrt+0x2c0>
     bf8:	ee06 0a26 	vmla.f32	s0, s12, s13
     bfc:	ee27 7a06 	vmul.f32	s14, s14, s12
     c00:	ee07 0a27 	vmla.f32	s0, s14, s15
     c04:	f73f af42 	bgt.w	a8c <aec_fsqrt+0xf4>
     c08:	4770      	bx	lr
     c0a:	ed9f 7a19 	vldr	s14, [pc, #100]	; c70 <aec_fsqrt+0x2d8>
     c0e:	e6fa      	b.n	a06 <aec_fsqrt+0x6e>
     c10:	eef7 7a00 	vmov.f32	s15, #112	; 0x70
     c14:	eef6 5a00 	vmov.f32	s11, #96	; 0x60
     c18:	ee77 7ac7 	vsub.f32	s15, s15, s14
     c1c:	ee26 7aa6 	vmul.f32	s14, s13, s13
     c20:	ed9f 6a0d 	vldr	s12, [pc, #52]	; c58 <aec_fsqrt+0x2c0>
     c24:	ee47 7a25 	vmla.f32	s15, s14, s11
     c28:	ee66 6a87 	vmul.f32	s13, s13, s14
     c2c:	ee46 7a86 	vmla.f32	s15, s13, s12
     c30:	eeb0 0a67 	vmov.f32	s0, s15
     c34:	4770      	bx	lr
     c36:	ed9f 7a05 	vldr	s14, [pc, #20]	; c4c <aec_fsqrt+0x2b4>
     c3a:	e76e      	b.n	b1a <aec_fsqrt+0x182>
     c3c:	ed9f 7a03 	vldr	s14, [pc, #12]	; c4c <aec_fsqrt+0x2b4>
     c40:	e6e1      	b.n	a06 <aec_fsqrt+0x6e>
     c42:	bf00      	nop
     c44:	006ce3ee 	.word	0x006ce3ee
     c48:	7cf0bdc2 	.word	0x7cf0bdc2
     c4c:	3f317218 	.word	0x3f317218
     c50:	3eaaaaab 	.word	0x3eaaaaab
     c54:	422eff18 	.word	0x422eff18
     c58:	3e2aaaab 	.word	0x3e2aaaab
     c5c:	c22eff18 	.word	0xc22eff18
     c60:	c2ac0000 	.word	0xc2ac0000
     c64:	42ae0000 	.word	0x42ae0000
     c68:	01739361 	.word	0x01739361
     c6c:	7e36d809 	.word	0x7e36d809
     c70:	00000000 	.word	0x00000000

00000c74 <aec_fsqrt_slow>:
     c74:	eeb5 0ac0 	vcmpe.f32	s0, #0.0
     c78:	eef1 fa10 	vmrs	APSR_nzcv, fpscr
     c7c:	f240 8189 	bls.w	f92 <aec_fsqrt_slow+0x31e>
     c80:	eddf 7ae3 	vldr	s15, [pc, #908]	; 1010 <aec_fsqrt_slow+0x39c>
     c84:	b538      	push	{r3, r4, r5, lr}
     c86:	eeb4 0ae7 	vcmpe.f32	s0, s15
     c8a:	eef1 fa10 	vmrs	APSR_nzcv, fpscr
     c8e:	f2c0 80ad 	blt.w	dec <aec_fsqrt_slow+0x178>
     c92:	eeb5 7a00 	vmov.f32	s14, #80	; 0x50
     c96:	ee20 7a07 	vmul.f32	s14, s0, s14
     c9a:	eeb4 7ae7 	vcmpe.f32	s14, s15
     c9e:	eef1 fa10 	vmrs	APSR_nzcv, fpscr
     ca2:	f2c0 817d 	blt.w	fa0 <aec_fsqrt_slow+0x32c>
     ca6:	ed9f 7adb 	vldr	s14, [pc, #876]	; 1014 <aec_fsqrt_slow+0x3a0>
     caa:	ee20 7a07 	vmul.f32	s14, s0, s14
     cae:	eeb4 7ae7 	vcmpe.f32	s14, s15
     cb2:	eef1 fa10 	vmrs	APSR_nzcv, fpscr
     cb6:	f2c0 8177 	blt.w	fa8 <aec_fsqrt_slow+0x334>
     cba:	ed9f 7ad7 	vldr	s14, [pc, #860]	; 1018 <aec_fsqrt_slow+0x3a4>
     cbe:	ee20 7a07 	vmul.f32	s14, s0, s14
     cc2:	eeb4 7ae7 	vcmpe.f32	s14, s15
     cc6:	eef1 fa10 	vmrs	APSR_nzcv, fpscr
     cca:	f2c0 8171 	blt.w	fb0 <aec_fsqrt_slow+0x33c>
     cce:	ed9f 7ad3 	vldr	s14, [pc, #844]	; 101c <aec_fsqrt_slow+0x3a8>
     cd2:	ee20 7a07 	vmul.f32	s14, s0, s14
     cd6:	eeb4 7ae7 	vcmpe.f32	s14, s15
     cda:	eef1 fa10 	vmrs	APSR_nzcv, fpscr
     cde:	f2c0 816b 	blt.w	fb8 <aec_fsqrt_slow+0x344>
     ce2:	ed9f 7acf 	vldr	s14, [pc, #828]	; 1020 <aec_fsqrt_slow+0x3ac>
     ce6:	ee20 7a07 	vmul.f32	s14, s0, s14
     cea:	eeb4 7ae7 	vcmpe.f32	s14, s15
     cee:	eef1 fa10 	vmrs	APSR_nzcv, fpscr
     cf2:	f2c0 8165 	blt.w	fc0 <aec_fsqrt_slow+0x34c>
     cf6:	ed9f 7acb 	vldr	s14, [pc, #812]	; 1024 <aec_fsqrt_slow+0x3b0>
     cfa:	ee20 7a07 	vmul.f32	s14, s0, s14
     cfe:	eeb4 7ae7 	vcmpe.f32	s14, s15
     d02:	eef1 fa10 	vmrs	APSR_nzcv, fpscr
     d06:	f2c0 815f 	blt.w	fc8 <aec_fsqrt_slow+0x354>
     d0a:	ed9f 7ac7 	vldr	s14, [pc, #796]	; 1028 <aec_fsqrt_slow+0x3b4>
     d0e:	ee20 7a07 	vmul.f32	s14, s0, s14
     d12:	eeb4 7ae7 	vcmpe.f32	s14, s15
     d16:	eef1 fa10 	vmrs	APSR_nzcv, fpscr
     d1a:	f2c0 8159 	blt.w	fd0 <aec_fsqrt_slow+0x35c>
     d1e:	ed9f 7ac3 	vldr	s14, [pc, #780]	; 102c <aec_fsqrt_slow+0x3b8>
     d22:	ee20 7a07 	vmul.f32	s14, s0, s14
     d26:	eeb4 7ae7 	vcmpe.f32	s14, s15
     d2a:	eef1 fa10 	vmrs	APSR_nzcv, fpscr
     d2e:	f2c0 8153 	blt.w	fd8 <aec_fsqrt_slow+0x364>
     d32:	ed9f 7abf 	vldr	s14, [pc, #764]	; 1030 <aec_fsqrt_slow+0x3bc>
     d36:	ee20 7a07 	vmul.f32	s14, s0, s14
     d3a:	eeb4 7ae7 	vcmpe.f32	s14, s15
     d3e:	eef1 fa10 	vmrs	APSR_nzcv, fpscr
     d42:	f2c0 814d 	blt.w	fe0 <aec_fsqrt_slow+0x36c>
     d46:	ed9f 7abb 	vldr	s14, [pc, #748]	; 1034 <aec_fsqrt_slow+0x3c0>
     d4a:	ee20 7a07 	vmul.f32	s14, s0, s14
     d4e:	eeb4 7ae7 	vcmpe.f32	s14, s15
     d52:	eef1 fa10 	vmrs	APSR_nzcv, fpscr
     d56:	f2c0 811f 	blt.w	f98 <aec_fsqrt_slow+0x324>
     d5a:	ed9f 7ab7 	vldr	s14, [pc, #732]	; 1038 <aec_fsqrt_slow+0x3c4>
     d5e:	ee20 7a07 	vmul.f32	s14, s0, s14
     d62:	eeb4 7ae7 	vcmpe.f32	s14, s15
     d66:	eef1 fa10 	vmrs	APSR_nzcv, fpscr
     d6a:	f2c0 813d 	blt.w	fe8 <aec_fsqrt_slow+0x374>
     d6e:	ed9f 7ab3 	vldr	s14, [pc, #716]	; 103c <aec_fsqrt_slow+0x3c8>
     d72:	ee20 7a07 	vmul.f32	s14, s0, s14
     d76:	eeb4 7ae7 	vcmpe.f32	s14, s15
     d7a:	eef1 fa10 	vmrs	APSR_nzcv, fpscr
     d7e:	f2c0 8137 	blt.w	ff0 <aec_fsqrt_slow+0x37c>
     d82:	ed9f 7aaf 	vldr	s14, [pc, #700]	; 1040 <aec_fsqrt_slow+0x3cc>
     d86:	ee20 7a07 	vmul.f32	s14, s0, s14
     d8a:	eeb4 7ae7 	vcmpe.f32	s14, s15
     d8e:	eef1 fa10 	vmrs	APSR_nzcv, fpscr
     d92:	f2c0 8131 	blt.w	ff8 <aec_fsqrt_slow+0x384>
     d96:	ed9f 7aab 	vldr	s14, [pc, #684]	; 1044 <aec_fsqrt_slow+0x3d0>
     d9a:	ee20 7a07 	vmul.f32	s14, s0, s14
     d9e:	eeb4 7ae7 	vcmpe.f32	s14, s15
     da2:	eef1 fa10 	vmrs	APSR_nzcv, fpscr
     da6:	f2c0 812b 	blt.w	1000 <aec_fsqrt_slow+0x38c>
     daa:	ed9f 7aa7 	vldr	s14, [pc, #668]	; 1048 <aec_fsqrt_slow+0x3d4>
     dae:	ee20 7a07 	vmul.f32	s14, s0, s14
     db2:	eeb4 7ae7 	vcmpe.f32	s14, s15
     db6:	eef1 fa10 	vmrs	APSR_nzcv, fpscr
     dba:	f2c0 8125 	blt.w	1008 <aec_fsqrt_slow+0x394>
     dbe:	ed9f 7aa3 	vldr	s14, [pc, #652]	; 104c <aec_fsqrt_slow+0x3d8>
     dc2:	ee80 7a07 	vdiv.f32	s14, s0, s14
     dc6:	eeb4 7ae7 	vcmpe.f32	s14, s15
     dca:	eef1 fa10 	vmrs	APSR_nzcv, fpscr
     dce:	bfbc      	itt	lt
     dd0:	eeb0 0a47 	vmovlt.f32	s0, s14
     dd4:	2010      	movlt	r0, #16
     dd6:	db0a      	blt.n	dee <aec_fsqrt_slow+0x17a>
     dd8:	f7ff fffe 	bl	1b8 <aec_flog>
			dd8: R_ARM_THM_CALL	aec_flog
     ddc:	eef6 7a00 	vmov.f32	s15, #96	; 0x60
     de0:	e8bd 4038 	ldmia.w	sp!, {r3, r4, r5, lr}
     de4:	ee20 0a27 	vmul.f32	s0, s0, s15
     de8:	f7ff bffe 	b.w	0 <aec_fexp>
			de8: R_ARM_THM_JUMP24	aec_fexp
     dec:	2000      	movs	r0, #0
     dee:	eddf 7a98 	vldr	s15, [pc, #608]	; 1050 <aec_fsqrt_slow+0x3dc>
     df2:	ee20 0a27 	vmul.f32	s0, s0, s15
     df6:	eefc 7ac0 	vcvt.u32.f32	s15, s0
     dfa:	ee17 3a90 	vmov	r3, s15
     dfe:	f1b3 4f80 	cmp.w	r3, #1073741824	; 0x40000000
     e02:	f103 4240 	add.w	r2, r3, #3221225472	; 0xc0000000
     e06:	bf2e      	itee	cs
     e08:	f04f 4580 	movcs.w	r5, #1073741824	; 0x40000000
     e0c:	2500      	movcc	r5, #0
     e0e:	461a      	movcc	r2, r3
     e10:	086c      	lsrs	r4, r5, #1
     e12:	f045 5380 	orr.w	r3, r5, #268435456	; 0x10000000
     e16:	429a      	cmp	r2, r3
     e18:	f044 5180 	orr.w	r1, r4, #268435456	; 0x10000000
     e1c:	bf38      	it	cc
     e1e:	4621      	movcc	r1, r4
     e20:	eba2 0303 	sub.w	r3, r2, r3
     e24:	ea4f 0451 	mov.w	r4, r1, lsr #1
     e28:	bf38      	it	cc
     e2a:	4613      	movcc	r3, r2
     e2c:	f041 6180 	orr.w	r1, r1, #67108864	; 0x4000000
     e30:	428b      	cmp	r3, r1
     e32:	f044 6280 	orr.w	r2, r4, #67108864	; 0x4000000
     e36:	bf38      	it	cc
     e38:	4622      	movcc	r2, r4
     e3a:	eba3 0101 	sub.w	r1, r3, r1
     e3e:	ea4f 0452 	mov.w	r4, r2, lsr #1
     e42:	bf38      	it	cc
     e44:	4619      	movcc	r1, r3
     e46:	f042 7280 	orr.w	r2, r2, #16777216	; 0x1000000
     e4a:	4291      	cmp	r1, r2
     e4c:	f044 7380 	orr.w	r3, r4, #16777216	; 0x1000000
     e50:	bf38      	it	cc
     e52:	4623      	movcc	r3, r4
     e54:	eba1 0202 	sub.w	r2, r1, r2
     e58:	ea4f 0453 	mov.w	r4, r3, lsr #1
     e5c:	bf38      	it	cc
     e5e:	460a      	movcc	r2, r1
     e60:	f443 0380 	orr.w	r3, r3, #4194304	; 0x400000
     e64:	429a      	cmp	r2, r3
     e66:	f444 0180 	orr.w	r1, r4, #4194304	; 0x400000
     e6a:	bf38      	it	cc
     e6c:	4621      	movcc	r1, r4
     e6e:	eba2 0303 	sub.w	r3, r2, r3
     e72:	ea4f 0451 	mov.w	r4, r1, lsr #1
     e76:	bf38      	it	cc
     e78:	4613      	movcc	r3, r2
     e7a:	f441 1180 	orr.w	r1, r1, #1048576	; 0x100000
     e7e:	428b      	cmp	r3, r1
     e80:	f444 1280 	orr.w	r2, r4, #1048576	; 0x100000
     e84:	bf38      	it	cc
     e86:	4622      	movcc	r2, r4
     e88:	eba3 0101 	sub.w	r1, r3, r1
     e8c:	ea4f 0452 	mov.w	r4, r2, lsr #1
     e90:	bf38      	it	cc
     e92:	4619      	movcc	r1, r3
     e94:	f442 2280 	orr.w	r2, r2, #262144	; 0x40000
     e98:	4291      	cmp	r1, r2
     e9a:	f444 2380 	orr.w	r3, r4, #262144	; 0x40000
     e9e:	bf38      	it	cc
     ea0:	4623      	movcc	r3, r4
     ea2:	eba1 0202 	sub.w	r2, r1, r2
     ea6:	ea4f 0453 	mov.w	r4, r3, lsr #1
     eaa:	bf38      	it	cc
     eac:	460a      	movcc	r2, r1
     eae:	f443 3380 	orr.w	r3, r3, #65536	; 0x10000
     eb2:	429a      	cmp	r2, r3
     eb4:	f444 3180 	orr.w	r1, r4, #65536	; 0x10000
     eb8:	bf38      	it	cc
     eba:	4621      	movcc	r1, r4
     ebc:	eba2 0303 	sub.w	r3, r2, r3
     ec0:	ea4f 0451 	mov.w	r4, r1, lsr #1
     ec4:	bf38      	it	cc
     ec6:	4613      	movcc	r3, r2
     ec8:	f441 4180 	orr.w	r1, r1, #16384	; 0x4000
     ecc:	428b      	cmp	r3, r1
     ece:	f444 4280 	orr.w	r2, r4, #16384	; 0x4000
     ed2:	bf38      	it	cc
     ed4:	4622      	movcc	r2, r4
     ed6:	eba3 0101 	sub.w	r1, r3, r1
     eda:	ea4f 0452 	mov.w	r4, r2, lsr #1
     ede:	bf38      	it	cc
     ee0:	4619      	movcc	r1, r3
     ee2:	f442 5280 	orr.w	r2, r2, #4096	; 0x1000
     ee6:	4291      	cmp	r1, r2
     ee8:	f444 5380 	orr.w	r3, r4, #4096	; 0x1000
     eec:	bf38      	it	cc
     eee:	4623      	movcc	r3, r4
     ef0:	eba1 0202 	sub.w	r2, r1, r2
     ef4:	ea4f 0453 	mov.w	r4, r3, lsr #1
     ef8:	bf38      	it	cc
     efa:	460a      	movcc	r2, r1
     efc:	f443 6380 	orr.w	r3, r3, #1024	; 0x400
     f00:	429a      	cmp	r2, r3
     f02:	f444 6180 	orr.w	r1, r4, #1024	; 0x400
     f06:	bf38      	it	cc
     f08:	4621      	movcc	r1, r4
     f0a:	eba2 0303 	sub.w	r3, r2, r3
     f0e:	ea4f 0451 	mov.w	r4, r1, lsr #1
     f12:	bf38      	it	cc
     f14:	4613      	movcc	r3, r2
     f16:	f441 7180 	orr.w	r1, r1, #256	; 0x100
     f1a:	428b      	cmp	r3, r1
     f1c:	f444 7280 	orr.w	r2, r4, #256	; 0x100
     f20:	bf38      	it	cc
     f22:	4622      	movcc	r2, r4
     f24:	eba3 0101 	sub.w	r1, r3, r1
     f28:	ea4f 0452 	mov.w	r4, r2, lsr #1
     f2c:	bf38      	it	cc
     f2e:	4619      	movcc	r1, r3
     f30:	f042 0240 	orr.w	r2, r2, #64	; 0x40
     f34:	4291      	cmp	r1, r2
     f36:	f044 0340 	orr.w	r3, r4, #64	; 0x40
     f3a:	bf38      	it	cc
     f3c:	4623      	movcc	r3, r4
     f3e:	eba1 0202 	sub.w	r2, r1, r2
     f42:	bf38      	it	cc
     f44:	460a      	movcc	r2, r1
     f46:	0859      	lsrs	r1, r3, #1
     f48:	f043 0310 	orr.w	r3, r3, #16
     f4c:	429a      	cmp	r2, r3
     f4e:	f041 0410 	orr.w	r4, r1, #16
     f52:	bf28      	it	cs
     f54:	4621      	movcs	r1, r4
     f56:	eba2 0303 	sub.w	r3, r2, r3
     f5a:	ea4f 0451 	mov.w	r4, r1, lsr #1
     f5e:	bf38      	it	cc
     f60:	4613      	movcc	r3, r2
     f62:	f041 0204 	orr.w	r2, r1, #4
     f66:	4293      	cmp	r3, r2
     f68:	f044 0104 	orr.w	r1, r4, #4
     f6c:	eba3 0202 	sub.w	r2, r3, r2
     f70:	bf34      	ite	cc
     f72:	4621      	movcc	r1, r4
     f74:	4613      	movcs	r3, r2
     f76:	084a      	lsrs	r2, r1, #1
     f78:	f041 0101 	orr.w	r1, r1, #1
     f7c:	4299      	cmp	r1, r3
     f7e:	bf8c      	ite	hi
     f80:	4613      	movhi	r3, r2
     f82:	f042 0301 	orrls.w	r3, r2, #1
     f86:	4083      	lsls	r3, r0
     f88:	ee00 3a10 	vmov	s0, r3
     f8c:	eebb 0aca 	vcvt.f32.u32	s0, s0, #12
     f90:	bd38      	pop	{r3, r4, r5, pc}
     f92:	ed9f 0a2e 	vldr	s0, [pc, #184]	; 104c <aec_fsqrt_slow+0x3d8>
     f96:	4770      	bx	lr
     f98:	eeb0 0a47 	vmov.f32	s0, s14
     f9c:	200a      	movs	r0, #10
     f9e:	e726      	b.n	dee <aec_fsqrt_slow+0x17a>
     fa0:	eeb0 0a47 	vmov.f32	s0, s14
     fa4:	2001      	movs	r0, #1
     fa6:	e722      	b.n	dee <aec_fsqrt_slow+0x17a>
     fa8:	eeb0 0a47 	vmov.f32	s0, s14
     fac:	2002      	movs	r0, #2
     fae:	e71e      	b.n	dee <aec_fsqrt_slow+0x17a>
     fb0:	eeb0 0a47 	vmov.f32	s0, s14
     fb4:	2003      	movs	r0, #3
     fb6:	e71a      	b.n	dee <aec_fsqrt_slow+0x17a>
     fb8:	eeb0 0a47 	vmov.f32	s0, s14
     fbc:	2004      	movs	r0, #4
     fbe:	e716      	b.n	dee <aec_fsqrt_slow+0x17a>
     fc0:	eeb0 0a47 	vmov.f32	s0, s14
     fc4:	2005      	movs	r0, #5
     fc6:	e712      	b.n	dee <aec_fsqrt_slow+0x17a>
     fc8:	eeb0 0a47 	vmov.f32	s0, s14
     fcc:	2006      	movs	r0, #6
     fce:	e70e      	b.n	dee <aec_fsqrt_slow+0x17a>
     fd0:	eeb0 0a47 	vmov.f32	s0, s14
     fd4:	2007      	movs	r0, #7
     fd6:	e70a      	b.n	dee <aec_fsqrt_slow+0x17a>
     fd8:	eeb0 0a47 	vmov.f32	s0, s14
     fdc:	2008      	movs	r0, #8
     fde:	e706      	b.n	dee <aec_fsqrt_slow+0x17a>
     fe0:	eeb0 0a47 	vmov.f32	s0, s14
     fe4:	2009      	movs	r0, #9
     fe6:	e702      	b.n	dee <aec_fsqrt_slow+0x17a>
     fe8:	eeb0 0a47 	vmov.f32	s0, s14
     fec:	200b      	movs	r0, #11
     fee:	e6fe      	b.n	dee <aec_fsqrt_slow+0x17a>
     ff0:	eeb0 0a47 	vmov.f32	s0, s14
     ff4:	200c      	movs	r0, #12
     ff6:	e6fa      	b.n	dee <aec_fsqrt_slow+0x17a>
     ff8:	eeb0 0a47 	vmov.f32	s0, s14
     ffc:	200d      	movs	r0, #13
     ffe:	e6f6      	b.n	dee <aec_fsqrt_slow+0x17a>
    1000:	eeb0 0a47 	vmov.f32	s0, s14
    1004:	200e      	movs	r0, #14
    1006:	e6f2      	b.n	dee <aec_fsqrt_slow+0x17a>
    1008:	eeb0 0a47 	vmov.f32	s0, s14
    100c:	200f      	movs	r0, #15
    100e:	e6ee      	b.n	dee <aec_fsqrt_slow+0x17a>
    1010:	43800000 	.word	0x43800000
    1014:	3d800000 	.word	0x3d800000
    1018:	3c800000 	.word	0x3c800000
    101c:	3b800000 	.word	0x3b800000
    1020:	3a800000 	.word	0x3a800000
    1024:	39800000 	.word	0x39800000
    1028:	38800000 	.word	0x38800000
    102c:	37800000 	.word	0x37800000
    1030:	36800000 	.word	0x36800000
    1034:	35800000 	.word	0x35800000
    1038:	34800000 	.word	0x34800000
    103c:	33800000 	.word	0x33800000
    1040:	32800000 	.word	0x32800000
    1044:	31800000 	.word	0x31800000
    1048:	30800000 	.word	0x30800000
    104c:	00000000 	.word	0x00000000
    1050:	4b800000 	.word	0x4b800000

aec_log.o:     file format elf32-littlearm
rw-rw-r-- 1016/1016   1296 Dec 10 16:27 2015 aec_log.o
architecture: arm, flags 0x00000011:
HAS_RELOC, HAS_SYMS
start address 0x00000000
private flags = 5000000: [Version5 EABI]

Sections:
Idx Name          Size      VMA       LMA       File off  Algn
  0 .text         00000038  00000000  00000000  00000034  2**2
                  CONTENTS, ALLOC, LOAD, RELOC, READONLY, CODE
  1 .data         00000000  00000000  00000000  0000006c  2**0
                  CONTENTS, ALLOC, LOAD, DATA
  2 .bss          00000004  00000000  00000000  0000006c  2**2
                  ALLOC
  3 .rodata.str1.4 00000004  00000000  00000000  0000006c  2**2
                  CONTENTS, ALLOC, LOAD, READONLY, DATA
  4 .comment      00000037  00000000  00000000  00000070  2**0
                  CONTENTS, READONLY
  5 .note.GNU-stack 00000000  00000000  00000000  000000a7  2**0
                  CONTENTS, READONLY
  6 .ARM.attributes 00000035  00000000  00000000  000000a7  2**0
                  CONTENTS, READONLY
SYMBOL TABLE:
00000000 l    df *ABS*	00000000 aec_log.c
00000000 l    d  .text	00000000 .text
00000000 l    d  .data	00000000 .data
00000000 l    d  .bss	00000000 .bss
00000000 l       .rodata.str1.4	00000000 .LC0
00000000 l       .bss	00000000 .LANCHOR0
00000000 l    d  .rodata.str1.4	00000000 .rodata.str1.4
00000000 l     O .bss	00000004 aec_log_file
00000000 l    d  .note.GNU-stack	00000000 .note.GNU-stack
00000000 l    d  .comment	00000000 .comment
00000000 l    d  .ARM.attributes	00000000 .ARM.attributes
00000000 g     F .text	00000016 initLog
00000000         *UND*	00000000 fopen_s
00000018 g     F .text	00000012 closeLog
00000000         *UND*	00000000 fclose
0000002c g     F .text	0000000c getFilePointer



Disassembly of section .text:

00000000 <initLog>:
   0:	4601      	mov	r1, r0
   2:	f240 0200 	movw	r2, #0
			2: R_ARM_THM_MOVW_ABS_NC	.LC0
   6:	f240 0000 	movw	r0, #0
			6: R_ARM_THM_MOVW_ABS_NC	.LANCHOR0
   a:	f2c0 0200 	movt	r2, #0
			a: R_ARM_THM_MOVT_ABS	.LC0
   e:	f2c0 0000 	movt	r0, #0
			e: R_ARM_THM_MOVT_ABS	.LANCHOR0
  12:	f7ff bffe 	b.w	0 <fopen_s>
			12: R_ARM_THM_JUMP24	fopen_s
  16:	bf00      	nop

00000018 <closeLog>:
  18:	f240 0300 	movw	r3, #0
			18: R_ARM_THM_MOVW_ABS_NC	.LANCHOR0
  1c:	f2c0 0300 	movt	r3, #0
			1c: R_ARM_THM_MOVT_ABS	.LANCHOR0
  20:	6818      	ldr	r0, [r3, #0]
  22:	b108      	cbz	r0, 28 <closeLog+0x10>
  24:	f7ff bffe 	b.w	0 <fclose>
			24: R_ARM_THM_JUMP24	fclose
  28:	4770      	bx	lr
  2a:	bf00      	nop

0000002c <getFilePointer>:
  2c:	f240 0300 	movw	r3, #0
			2c: R_ARM_THM_MOVW_ABS_NC	.LANCHOR0
  30:	f2c0 0300 	movt	r3, #0
			30: R_ARM_THM_MOVT_ABS	.LANCHOR0
  34:	6818      	ldr	r0, [r3, #0]
  36:	4770      	bx	lr

aec_malloc.o:     file format elf32-littlearm
rw-rw-r-- 1016/1016   1296 Dec 10 16:27 2015 aec_malloc.o
architecture: arm, flags 0x00000011:
HAS_RELOC, HAS_SYMS
start address 0x00000000
private flags = 5000000: [Version5 EABI]

Sections:
Idx Name          Size      VMA       LMA       File off  Algn
  0 .text         00000050  00000000  00000000  00000034  2**2
                  CONTENTS, ALLOC, LOAD, RELOC, READONLY, CODE
  1 .data         00000000  00000000  00000000  00000084  2**0
                  CONTENTS, ALLOC, LOAD, DATA
  2 .bss          00000008  00000000  00000000  00000084  2**2
                  ALLOC
  3 .comment      00000037  00000000  00000000  00000084  2**0
                  CONTENTS, READONLY
  4 .note.GNU-stack 00000000  00000000  00000000  000000bb  2**0
                  CONTENTS, READONLY
  5 .ARM.attributes 00000035  00000000  00000000  000000bb  2**0
                  CONTENTS, READONLY
SYMBOL TABLE:
00000000 l    df *ABS*	00000000 aec_malloc.c
00000000 l    d  .text	00000000 .text
00000000 l    d  .data	00000000 .data
00000000 l    d  .bss	00000000 .bss
00000000 l       .bss	00000000 .LANCHOR0
00000000 l    d  .note.GNU-stack	00000000 .note.GNU-stack
00000000 l    d  .comment	00000000 .comment
00000000 l    d  .ARM.attributes	00000000 .ARM.attributes
00000000 g     F .text	0000000c get_memory_bytes_count
0000000c g     F .text	0000000c get_alloc_minus_free_calls
00000018 g     F .text	00000020 aec_calloc
00000000         *UND*	00000000 calloc
00000038 g     F .text	00000016 aec_free
00000000         *UND*	00000000 free
00000004 g     O .bss	00000004 alloc_minus_free
00000000 g     O .bss	00000004 total_size



Disassembly of section .text:

00000000 <get_memory_bytes_count>:
   0:	f240 0300 	movw	r3, #0
			0: R_ARM_THM_MOVW_ABS_NC	.LANCHOR0
   4:	f2c0 0300 	movt	r3, #0
			4: R_ARM_THM_MOVT_ABS	.LANCHOR0
   8:	6818      	ldr	r0, [r3, #0]
   a:	4770      	bx	lr

0000000c <get_alloc_minus_free_calls>:
   c:	f240 0300 	movw	r3, #0
			c: R_ARM_THM_MOVW_ABS_NC	.LANCHOR0
  10:	f2c0 0300 	movt	r3, #0
			10: R_ARM_THM_MOVT_ABS	.LANCHOR0
  14:	6858      	ldr	r0, [r3, #4]
  16:	4770      	bx	lr

00000018 <aec_calloc>:
  18:	f240 0300 	movw	r3, #0
			18: R_ARM_THM_MOVW_ABS_NC	.LANCHOR0
  1c:	b410      	push	{r4}
  1e:	f2c0 0300 	movt	r3, #0
			1e: R_ARM_THM_MOVT_ABS	.LANCHOR0
  22:	e893 0014 	ldmia.w	r3, {r2, r4}
  26:	3401      	adds	r4, #1
  28:	fb01 2200 	mla	r2, r1, r0, r2
  2c:	e883 0014 	stmia.w	r3, {r2, r4}
  30:	f85d 4b04 	ldr.w	r4, [sp], #4
  34:	f7ff bffe 	b.w	0 <calloc>
			34: R_ARM_THM_JUMP24	calloc

00000038 <aec_free>:
  38:	b140      	cbz	r0, 4c <aec_free+0x14>
  3a:	f240 0300 	movw	r3, #0
			3a: R_ARM_THM_MOVW_ABS_NC	.LANCHOR0
  3e:	f2c0 0300 	movt	r3, #0
			3e: R_ARM_THM_MOVT_ABS	.LANCHOR0
  42:	685a      	ldr	r2, [r3, #4]
  44:	3a01      	subs	r2, #1
  46:	605a      	str	r2, [r3, #4]
  48:	f7ff bffe 	b.w	0 <free>
			48: R_ARM_THM_JUMP24	free
  4c:	4770      	bx	lr
  4e:	bf00      	nop

aec_mono.o:     file format elf32-littlearm
rw-rw-r-- 1016/1016  10464 Dec 10 16:27 2015 aec_mono.o
architecture: arm, flags 0x00000011:
HAS_RELOC, HAS_SYMS
start address 0x00000000
private flags = 5000000: [Version5 EABI]

Sections:
Idx Name          Size      VMA       LMA       File off  Algn
  0 .text         000013a4  00000000  00000000  00000034  2**2
                  CONTENTS, ALLOC, LOAD, RELOC, READONLY, CODE
  1 .data         00000000  00000000  00000000  000013d8  2**0
                  CONTENTS, ALLOC, LOAD, DATA
  2 .bss          00000064  00000000  00000000  000013d8  2**2
                  ALLOC
  3 .comment      00000037  00000000  00000000  000013d8  2**0
                  CONTENTS, READONLY
  4 .note.GNU-stack 00000000  00000000  00000000  0000140f  2**0
                  CONTENTS, READONLY
  5 .ARM.attributes 00000035  00000000  00000000  0000140f  2**0
                  CONTENTS, READONLY
SYMBOL TABLE:
00000000 l    df *ABS*	00000000 aec_mono.c
00000000 l    d  .text	00000000 .text
00000000 l    d  .data	00000000 .data
00000000 l    d  .bss	00000000 .bss
00000000 l       .bss	00000000 .LANCHOR0
00000060 l     O .bss	00000004 frame_num.5289
00000000 l    d  .note.GNU-stack	00000000 .note.GNU-stack
00000000 l    d  .comment	00000000 .comment
00000000 l    d  .ARM.attributes	00000000 .ARM.attributes
00000000 g     F .text	000003e8 aec_mono_init
00000000         *UND*	00000000 aec_calloc
00000004       O *COM*	00000004 g_notchMic
00000500       O *COM*	00000004 g_ap_af
00000000         *UND*	00000000 aec_notch_init
00000004       O *COM*	00000004 g_notchMic2
00000040       O *COM*	00000004 g_errvar
00000004       O *COM*	00000004 g_notchMic3
00000040       O *COM*	00000004 g_errvar2
00000004       O *COM*	00000004 g_notchMic4
00000040       O *COM*	00000004 g_errvar3
00000004       O *COM*	00000004 g_notchRef
00000040       O *COM*	00000004 g_errvar4
00000010       O *COM*	00000004 g_sb_chMic
00000000         *UND*	00000000 iirFilterBankInit
00000010       O *COM*	00000004 g_sb_chMic2
00000010       O *COM*	00000004 g_sb_chMic3
00000500       O *COM*	00000004 g_ap_af2
00000010       O *COM*	00000004 g_sb_chMic4
00000500       O *COM*	00000004 g_ap_af3
00000500       O *COM*	00000004 g_ap_af4
00000010       O *COM*	00000004 g_sb_chRef
00000000         *UND*	00000000 adaptive_filter_ap_init
00000024       O *COM*	00000004 g_ref_stft
00000000         *UND*	00000000 stft_init
00000024       O *COM*	00000004 g_mic_stft
00000024       O *COM*	00000004 g_mic_stft2
00000088       O *COM*	00000004 g_res
00000000         *UND*	00000000 aec_res_init
00000088       O *COM*	00000004 g_res2
00000088       O *COM*	00000004 g_res3
00000088       O *COM*	00000004 g_res4
00000000         *UND*	00000000 getBufNumForSB
000003e8 g     F .text	000001ac aec_mono_destroy
00000000         *UND*	00000000 aec_free
00000000         *UND*	00000000 aec_notch_destroy
00000000         *UND*	00000000 iirFilterBankDestroy
00000000         *UND*	00000000 adaptive_filter_ap_destroy
00000000         *UND*	00000000 stft_destroy
00000000         *UND*	00000000 aec_res_destroy
00000594 g     F .text	00000e10 aec_mono_proc
00000018       O *COM*	00000004 g_fb_eql
00000000         *UND*	00000000 time_equalize
00000000         *UND*	00000000 aec_notch
00000000         *UND*	00000000 memmove
00000000         *UND*	00000000 iirAnalyze
00000000         *UND*	00000000 adaptive_filter_ap_getFilteredSamples
00000000         *UND*	00000000 adaptive_filter_ap_update
00000000         *UND*	00000000 iirSynthes
00000000         *UND*	00000000 stft_analyze
00000000         *UND*	00000000 aec_res_proc_compl
00000000         *UND*	00000000 stft_synthes
00000048 g     O .bss	00000004 g_output4
00000038 g     O .bss	00000004 g_output3
00000028 g     O .bss	00000004 g_output2
00000018 g     O .bss	00000004 g_output
00000058 g     O .bss	00000004 g_allImpResp4
00000054 g     O .bss	00000004 g_allImpResp3
00000050 g     O .bss	00000004 g_allImpResp2
0000004c g     O .bss	00000004 g_allImpResp
00000044 g     O .bss	00000004 g_sbMic4
00000040 g     O .bss	00000004 g_all_sbMic4
00000034 g     O .bss	00000004 g_sbMic3
00000030 g     O .bss	00000004 g_all_sbMic3
00000024 g     O .bss	00000004 g_sbMic2
00000020 g     O .bss	00000004 g_all_sbMic2
00000010 g     O .bss	00000004 g_sbMic
00000008 g     O .bss	00000004 g_all_sbMic
00000014 g     O .bss	00000004 g_sbRef
0000000c g     O .bss	00000004 g_all_sbRef
0000003c g     O .bss	00000004 g_micBuf4
0000002c g     O .bss	00000004 g_micBuf3
0000001c g     O .bss	00000004 g_micBuf2
00000000 g     O .bss	00000004 g_micBuf
00000004 g     O .bss	00000004 g_refBuf
0000005c g     O .bss	00000004 g_bInitialized



Disassembly of section .text:

00000000 <aec_mono_init>:
       0:	e92d 4ff0 	stmdb	sp!, {r4, r5, r6, r7, r8, r9, sl, fp, lr}
       4:	f240 0b00 	movw	fp, #0
			4: R_ARM_THM_MOVW_ABS_NC	.LANCHOR0
       8:	b08b      	sub	sp, #44	; 0x2c
       a:	f2c0 0b00 	movt	fp, #0
			a: R_ARM_THM_MOVT_ABS	.LANCHOR0
       e:	2104      	movs	r1, #4
      10:	f44f 7080 	mov.w	r0, #256	; 0x100
      14:	f7ff fffe 	bl	0 <aec_calloc>
			14: R_ARM_THM_CALL	aec_calloc
      18:	2104      	movs	r1, #4
      1a:	f8cb 0000 	str.w	r0, [fp]
      1e:	f44f 7080 	mov.w	r0, #256	; 0x100
      22:	2400      	movs	r4, #0
      24:	f7ff fffe 	bl	0 <aec_calloc>
			24: R_ARM_THM_CALL	aec_calloc
      28:	2104      	movs	r1, #4
      2a:	f8cb 0004 	str.w	r0, [fp, #4]
      2e:	f44f 7090 	mov.w	r0, #288	; 0x120
      32:	f7ff fffe 	bl	0 <aec_calloc>
			32: R_ARM_THM_CALL	aec_calloc
      36:	2104      	movs	r1, #4
      38:	f8cb 0008 	str.w	r0, [fp, #8]
      3c:	f44f 60a2 	mov.w	r0, #1296	; 0x510
      40:	f7ff fffe 	bl	0 <aec_calloc>
			40: R_ARM_THM_CALL	aec_calloc
      44:	2104      	movs	r1, #4
      46:	f8cb 000c 	str.w	r0, [fp, #12]
      4a:	2010      	movs	r0, #16
      4c:	f7ff fffe 	bl	0 <aec_calloc>
			4c: R_ARM_THM_CALL	aec_calloc
      50:	2104      	movs	r1, #4
      52:	f8cb 0010 	str.w	r0, [fp, #16]
      56:	2010      	movs	r0, #16
      58:	f7ff fffe 	bl	0 <aec_calloc>
			58: R_ARM_THM_CALL	aec_calloc
      5c:	2104      	movs	r1, #4
      5e:	f8cb 0014 	str.w	r0, [fp, #20]
      62:	f44f 7080 	mov.w	r0, #256	; 0x100
      66:	f7ff fffe 	bl	0 <aec_calloc>
			66: R_ARM_THM_CALL	aec_calloc
      6a:	2104      	movs	r1, #4
      6c:	f8cb 0018 	str.w	r0, [fp, #24]
      70:	f44f 7080 	mov.w	r0, #256	; 0x100
      74:	f7ff fffe 	bl	0 <aec_calloc>
			74: R_ARM_THM_CALL	aec_calloc
      78:	2104      	movs	r1, #4
      7a:	f8cb 001c 	str.w	r0, [fp, #28]
      7e:	f44f 7090 	mov.w	r0, #288	; 0x120
      82:	f7ff fffe 	bl	0 <aec_calloc>
			82: R_ARM_THM_CALL	aec_calloc
      86:	2104      	movs	r1, #4
      88:	f8cb 0020 	str.w	r0, [fp, #32]
      8c:	2010      	movs	r0, #16
      8e:	f7ff fffe 	bl	0 <aec_calloc>
			8e: R_ARM_THM_CALL	aec_calloc
      92:	2104      	movs	r1, #4
      94:	f8cb 0024 	str.w	r0, [fp, #36]	; 0x24
      98:	f44f 7080 	mov.w	r0, #256	; 0x100
      9c:	f7ff fffe 	bl	0 <aec_calloc>
			9c: R_ARM_THM_CALL	aec_calloc
      a0:	2104      	movs	r1, #4
      a2:	f8cb 0028 	str.w	r0, [fp, #40]	; 0x28
      a6:	f44f 7080 	mov.w	r0, #256	; 0x100
      aa:	f7ff fffe 	bl	0 <aec_calloc>
			aa: R_ARM_THM_CALL	aec_calloc
      ae:	2104      	movs	r1, #4
      b0:	f8cb 002c 	str.w	r0, [fp, #44]	; 0x2c
      b4:	f44f 7090 	mov.w	r0, #288	; 0x120
      b8:	f7ff fffe 	bl	0 <aec_calloc>
			b8: R_ARM_THM_CALL	aec_calloc
      bc:	2104      	movs	r1, #4
      be:	f8cb 0030 	str.w	r0, [fp, #48]	; 0x30
      c2:	2010      	movs	r0, #16
      c4:	f7ff fffe 	bl	0 <aec_calloc>
			c4: R_ARM_THM_CALL	aec_calloc
      c8:	2104      	movs	r1, #4
      ca:	f8cb 0034 	str.w	r0, [fp, #52]	; 0x34
      ce:	f44f 7080 	mov.w	r0, #256	; 0x100
      d2:	f7ff fffe 	bl	0 <aec_calloc>
			d2: R_ARM_THM_CALL	aec_calloc
      d6:	2104      	movs	r1, #4
      d8:	f8cb 0038 	str.w	r0, [fp, #56]	; 0x38
      dc:	f44f 7080 	mov.w	r0, #256	; 0x100
      e0:	f7ff fffe 	bl	0 <aec_calloc>
			e0: R_ARM_THM_CALL	aec_calloc
      e4:	2104      	movs	r1, #4
      e6:	f8cb 003c 	str.w	r0, [fp, #60]	; 0x3c
      ea:	f44f 7090 	mov.w	r0, #288	; 0x120
      ee:	f7ff fffe 	bl	0 <aec_calloc>
			ee: R_ARM_THM_CALL	aec_calloc
      f2:	2104      	movs	r1, #4
      f4:	f8cb 0040 	str.w	r0, [fp, #64]	; 0x40
      f8:	2010      	movs	r0, #16
      fa:	f7ff fffe 	bl	0 <aec_calloc>
			fa: R_ARM_THM_CALL	aec_calloc
      fe:	2104      	movs	r1, #4
     100:	f8cb 0044 	str.w	r0, [fp, #68]	; 0x44
     104:	f44f 7080 	mov.w	r0, #256	; 0x100
     108:	f7ff fffe 	bl	0 <aec_calloc>
			108: R_ARM_THM_CALL	aec_calloc
     10c:	4622      	mov	r2, r4
     10e:	4623      	mov	r3, r4
     110:	f8cb 0048 	str.w	r0, [fp, #72]	; 0x48
     114:	f8db 1008 	ldr.w	r1, [fp, #8]
     118:	f8db 0010 	ldr.w	r0, [fp, #16]
     11c:	4411      	add	r1, r2
     11e:	50c1      	str	r1, [r0, r3]
     120:	f8db 1020 	ldr.w	r1, [fp, #32]
     124:	f8db 0024 	ldr.w	r0, [fp, #36]	; 0x24
     128:	4411      	add	r1, r2
     12a:	50c1      	str	r1, [r0, r3]
     12c:	f8db 1030 	ldr.w	r1, [fp, #48]	; 0x30
     130:	f8db 0034 	ldr.w	r0, [fp, #52]	; 0x34
     134:	4411      	add	r1, r2
     136:	50c1      	str	r1, [r0, r3]
     138:	f8db 1040 	ldr.w	r1, [fp, #64]	; 0x40
     13c:	f8db 0044 	ldr.w	r0, [fp, #68]	; 0x44
     140:	4411      	add	r1, r2
     142:	3248      	adds	r2, #72	; 0x48
     144:	50c1      	str	r1, [r0, r3]
     146:	f8db 100c 	ldr.w	r1, [fp, #12]
     14a:	f8db 0014 	ldr.w	r0, [fp, #20]
     14e:	4421      	add	r1, r4
     150:	f504 74a2 	add.w	r4, r4, #324	; 0x144
     154:	50c1      	str	r1, [r0, r3]
     156:	3304      	adds	r3, #4
     158:	2b40      	cmp	r3, #64	; 0x40
     15a:	d1db      	bne.n	114 <aec_mono_init+0x114>
     15c:	f240 0000 	movw	r0, #0
			15c: R_ARM_THM_MOVW_ABS_NC	g_notchMic
     160:	2500      	movs	r5, #0
     162:	f2c0 0000 	movt	r0, #0
			162: R_ARM_THM_MOVT_ABS	g_notchMic
     166:	f240 0700 	movw	r7, #0
			166: R_ARM_THM_MOVW_ABS_NC	g_ap_af
     16a:	f7ff fffe 	bl	0 <aec_notch_init>
			16a: R_ARM_THM_CALL	aec_notch_init
     16e:	f240 0000 	movw	r0, #0
			16e: R_ARM_THM_MOVW_ABS_NC	g_notchMic2
     172:	f240 0300 	movw	r3, #0
			172: R_ARM_THM_MOVW_ABS_NC	g_errvar
     176:	f2c0 0000 	movt	r0, #0
			176: R_ARM_THM_MOVT_ABS	g_notchMic2
     17a:	461e      	mov	r6, r3
     17c:	f7ff fffe 	bl	0 <aec_notch_init>
			17c: R_ARM_THM_CALL	aec_notch_init
     180:	f240 0000 	movw	r0, #0
			180: R_ARM_THM_MOVW_ABS_NC	g_notchMic3
     184:	f240 0300 	movw	r3, #0
			184: R_ARM_THM_MOVW_ABS_NC	g_errvar2
     188:	f2c0 0000 	movt	r0, #0
			188: R_ARM_THM_MOVT_ABS	g_notchMic3
     18c:	9305      	str	r3, [sp, #20]
     18e:	f7ff fffe 	bl	0 <aec_notch_init>
			18e: R_ARM_THM_CALL	aec_notch_init
     192:	f240 0000 	movw	r0, #0
			192: R_ARM_THM_MOVW_ABS_NC	g_notchMic4
     196:	f240 0200 	movw	r2, #0
			196: R_ARM_THM_MOVW_ABS_NC	g_errvar3
     19a:	f2c0 0000 	movt	r0, #0
			19a: R_ARM_THM_MOVT_ABS	g_notchMic4
     19e:	9206      	str	r2, [sp, #24]
     1a0:	f7ff fffe 	bl	0 <aec_notch_init>
			1a0: R_ARM_THM_CALL	aec_notch_init
     1a4:	f240 0000 	movw	r0, #0
			1a4: R_ARM_THM_MOVW_ABS_NC	g_notchRef
     1a8:	f240 0100 	movw	r1, #0
			1a8: R_ARM_THM_MOVW_ABS_NC	g_errvar4
     1ac:	f2c0 0000 	movt	r0, #0
			1ac: R_ARM_THM_MOVT_ABS	g_notchRef
     1b0:	9107      	str	r1, [sp, #28]
     1b2:	f7ff fffe 	bl	0 <aec_notch_init>
			1b2: R_ARM_THM_CALL	aec_notch_init
     1b6:	f240 0100 	movw	r1, #0
			1b6: R_ARM_THM_MOVW_ABS_NC	g_sb_chMic
     1ba:	2002      	movs	r0, #2
     1bc:	f2c0 0100 	movt	r1, #0
			1bc: R_ARM_THM_MOVT_ABS	g_sb_chMic
     1c0:	f2c0 0600 	movt	r6, #0
			1c0: R_ARM_THM_MOVT_ABS	g_errvar
     1c4:	f7ff fffe 	bl	0 <iirFilterBankInit>
			1c4: R_ARM_THM_CALL	iirFilterBankInit
     1c8:	f240 0100 	movw	r1, #0
			1c8: R_ARM_THM_MOVW_ABS_NC	g_sb_chMic2
     1cc:	2002      	movs	r0, #2
     1ce:	f2c0 0100 	movt	r1, #0
			1ce: R_ARM_THM_MOVT_ABS	g_sb_chMic2
     1d2:	9608      	str	r6, [sp, #32]
     1d4:	f7ff fffe 	bl	0 <iirFilterBankInit>
			1d4: R_ARM_THM_CALL	iirFilterBankInit
     1d8:	f240 0100 	movw	r1, #0
			1d8: R_ARM_THM_MOVW_ABS_NC	g_sb_chMic3
     1dc:	2002      	movs	r0, #2
     1de:	f2c0 0100 	movt	r1, #0
			1de: R_ARM_THM_MOVT_ABS	g_sb_chMic3
     1e2:	f240 0800 	movw	r8, #0
			1e2: R_ARM_THM_MOVW_ABS_NC	g_ap_af2
     1e6:	f7ff fffe 	bl	0 <iirFilterBankInit>
			1e6: R_ARM_THM_CALL	iirFilterBankInit
     1ea:	9b05      	ldr	r3, [sp, #20]
     1ec:	f240 0100 	movw	r1, #0
			1ec: R_ARM_THM_MOVW_ABS_NC	g_sb_chMic4
     1f0:	f2c0 0100 	movt	r1, #0
			1f0: R_ARM_THM_MOVT_ABS	g_sb_chMic4
     1f4:	2002      	movs	r0, #2
     1f6:	f240 0900 	movw	r9, #0
			1f6: R_ARM_THM_MOVW_ABS_NC	g_ap_af3
     1fa:	f240 0a00 	movw	sl, #0
			1fa: R_ARM_THM_MOVW_ABS_NC	g_ap_af4
     1fe:	f2c0 0300 	movt	r3, #0
			1fe: R_ARM_THM_MOVT_ABS	g_errvar2
     202:	462c      	mov	r4, r5
     204:	9305      	str	r3, [sp, #20]
     206:	f2c0 0700 	movt	r7, #0
			206: R_ARM_THM_MOVT_ABS	g_ap_af
     20a:	f7ff fffe 	bl	0 <iirFilterBankInit>
			20a: R_ARM_THM_CALL	iirFilterBankInit
     20e:	9a06      	ldr	r2, [sp, #24]
     210:	f240 0100 	movw	r1, #0
			210: R_ARM_THM_MOVW_ABS_NC	g_sb_chRef
     214:	f2c0 0100 	movt	r1, #0
			214: R_ARM_THM_MOVT_ABS	g_sb_chRef
     218:	4628      	mov	r0, r5
     21a:	f2c0 0800 	movt	r8, #0
			21a: R_ARM_THM_MOVT_ABS	g_ap_af2
     21e:	f2c0 0900 	movt	r9, #0
			21e: R_ARM_THM_MOVT_ABS	g_ap_af3
     222:	4613      	mov	r3, r2
     224:	9a07      	ldr	r2, [sp, #28]
     226:	f2c0 0300 	movt	r3, #0
			226: R_ARM_THM_MOVT_ABS	g_errvar3
     22a:	f2c0 0a00 	movt	sl, #0
			22a: R_ARM_THM_MOVT_ABS	g_ap_af4
     22e:	9306      	str	r3, [sp, #24]
     230:	462e      	mov	r6, r5
     232:	f2c0 0200 	movt	r2, #0
			232: R_ARM_THM_MOVT_ABS	g_errvar4
     236:	9207      	str	r2, [sp, #28]
     238:	f7ff fffe 	bl	0 <iirFilterBankInit>
			238: R_ARM_THM_CALL	iirFilterBankInit
     23c:	f8cd b024 	str.w	fp, [sp, #36]	; 0x24
     240:	f8dd b020 	ldr.w	fp, [sp, #32]
     244:	197b      	adds	r3, r7, r5
     246:	eb0b 0204 	add.w	r2, fp, r4
     24a:	ed9f 0a66 	vldr	s0, [pc, #408]	; 3e4 <aec_mono_init+0x3e4>
     24e:	f246 6165 	movw	r1, #26213	; 0x6665
     252:	9302      	str	r3, [sp, #8]
     254:	2000      	movs	r0, #0
     256:	2303      	movs	r3, #3
     258:	9200      	str	r2, [sp, #0]
     25a:	9601      	str	r6, [sp, #4]
     25c:	f647 1298 	movw	r2, #31128	; 0x7998
     260:	f7ff fffe 	bl	0 <adaptive_filter_ap_init>
			260: R_ARM_THM_CALL	adaptive_filter_ap_init
     264:	9a05      	ldr	r2, [sp, #20]
     266:	eb08 0305 	add.w	r3, r8, r5
     26a:	ed9f 0a5e 	vldr	s0, [pc, #376]	; 3e4 <aec_mono_init+0x3e4>
     26e:	f246 6165 	movw	r1, #26213	; 0x6665
     272:	9302      	str	r3, [sp, #8]
     274:	2000      	movs	r0, #0
     276:	4422      	add	r2, r4
     278:	2303      	movs	r3, #3
     27a:	9200      	str	r2, [sp, #0]
     27c:	f647 1298 	movw	r2, #31128	; 0x7998
     280:	9601      	str	r6, [sp, #4]
     282:	f7ff fffe 	bl	0 <adaptive_filter_ap_init>
			282: R_ARM_THM_CALL	adaptive_filter_ap_init
     286:	9a06      	ldr	r2, [sp, #24]
     288:	eb09 0305 	add.w	r3, r9, r5
     28c:	ed9f 0a55 	vldr	s0, [pc, #340]	; 3e4 <aec_mono_init+0x3e4>
     290:	f246 6165 	movw	r1, #26213	; 0x6665
     294:	9302      	str	r3, [sp, #8]
     296:	2000      	movs	r0, #0
     298:	4422      	add	r2, r4
     29a:	2303      	movs	r3, #3
     29c:	9200      	str	r2, [sp, #0]
     29e:	f647 1298 	movw	r2, #31128	; 0x7998
     2a2:	9601      	str	r6, [sp, #4]
     2a4:	f7ff fffe 	bl	0 <adaptive_filter_ap_init>
			2a4: R_ARM_THM_CALL	adaptive_filter_ap_init
     2a8:	9a07      	ldr	r2, [sp, #28]
     2aa:	eb0a 0305 	add.w	r3, sl, r5
     2ae:	9302      	str	r3, [sp, #8]
     2b0:	f246 6165 	movw	r1, #26213	; 0x6665
     2b4:	9601      	str	r6, [sp, #4]
     2b6:	2303      	movs	r3, #3
     2b8:	4422      	add	r2, r4
     2ba:	ed9f 0a4a 	vldr	s0, [pc, #296]	; 3e4 <aec_mono_init+0x3e4>
     2be:	9200      	str	r2, [sp, #0]
     2c0:	3404      	adds	r4, #4
     2c2:	f647 1298 	movw	r2, #31128	; 0x7998
     2c6:	2000      	movs	r0, #0
     2c8:	f7ff fffe 	bl	0 <adaptive_filter_ap_init>
			2c8: R_ARM_THM_CALL	adaptive_filter_ap_init
     2cc:	2c40      	cmp	r4, #64	; 0x40
     2ce:	f105 0550 	add.w	r5, r5, #80	; 0x50
     2d2:	d1b7      	bne.n	ffffff96 <aec_mono_proc+0xfffffa02>
     2d4:	f240 0200 	movw	r2, #0
			2d4: R_ARM_THM_MOVW_ABS_NC	g_ref_stft
     2d8:	2101      	movs	r1, #1
     2da:	f2c0 0200 	movt	r2, #0
			2da: R_ARM_THM_MOVT_ABS	g_ref_stft
     2de:	2000      	movs	r0, #0
     2e0:	f8dd b024 	ldr.w	fp, [sp, #36]	; 0x24
     2e4:	2400      	movs	r4, #0
     2e6:	f7ff fffe 	bl	0 <stft_init>
			2e6: R_ARM_THM_CALL	stft_init
     2ea:	2102      	movs	r1, #2
     2ec:	f240 0200 	movw	r2, #0
			2ec: R_ARM_THM_MOVW_ABS_NC	g_mic_stft
     2f0:	4608      	mov	r0, r1
     2f2:	f2c0 0200 	movt	r2, #0
			2f2: R_ARM_THM_MOVT_ABS	g_mic_stft
     2f6:	f7ff fffe 	bl	0 <stft_init>
			2f6: R_ARM_THM_CALL	stft_init
     2fa:	2102      	movs	r1, #2
     2fc:	f240 0200 	movw	r2, #0
			2fc: R_ARM_THM_MOVW_ABS_NC	g_mic_stft2
     300:	f2c0 0200 	movt	r2, #0
			300: R_ARM_THM_MOVT_ABS	g_mic_stft2
     304:	4608      	mov	r0, r1
     306:	f7ff fffe 	bl	0 <stft_init>
			306: R_ARM_THM_CALL	stft_init
     30a:	f240 0000 	movw	r0, #0
			30a: R_ARM_THM_MOVW_ABS_NC	g_res
     30e:	f2c0 0000 	movt	r0, #0
			30e: R_ARM_THM_MOVT_ABS	g_res
     312:	f7ff fffe 	bl	0 <aec_res_init>
			312: R_ARM_THM_CALL	aec_res_init
     316:	2104      	movs	r1, #4
     318:	2010      	movs	r0, #16
     31a:	f7ff fffe 	bl	0 <aec_calloc>
			31a: R_ARM_THM_CALL	aec_calloc
     31e:	f8cb 004c 	str.w	r0, [fp, #76]	; 0x4c
     322:	f240 0000 	movw	r0, #0
			322: R_ARM_THM_MOVW_ABS_NC	g_res2
     326:	f2c0 0000 	movt	r0, #0
			326: R_ARM_THM_MOVT_ABS	g_res2
     32a:	f7ff fffe 	bl	0 <aec_res_init>
			32a: R_ARM_THM_CALL	aec_res_init
     32e:	2104      	movs	r1, #4
     330:	2010      	movs	r0, #16
     332:	f7ff fffe 	bl	0 <aec_calloc>
			332: R_ARM_THM_CALL	aec_calloc
     336:	f8cb 0050 	str.w	r0, [fp, #80]	; 0x50
     33a:	f240 0000 	movw	r0, #0
			33a: R_ARM_THM_MOVW_ABS_NC	g_res3
     33e:	f2c0 0000 	movt	r0, #0
			33e: R_ARM_THM_MOVT_ABS	g_res3
     342:	f7ff fffe 	bl	0 <aec_res_init>
			342: R_ARM_THM_CALL	aec_res_init
     346:	2104      	movs	r1, #4
     348:	2010      	movs	r0, #16
     34a:	f7ff fffe 	bl	0 <aec_calloc>
			34a: R_ARM_THM_CALL	aec_calloc
     34e:	f8cb 0054 	str.w	r0, [fp, #84]	; 0x54
     352:	f240 0000 	movw	r0, #0
			352: R_ARM_THM_MOVW_ABS_NC	g_res4
     356:	f2c0 0000 	movt	r0, #0
			356: R_ARM_THM_MOVT_ABS	g_res4
     35a:	f7ff fffe 	bl	0 <aec_res_init>
			35a: R_ARM_THM_CALL	aec_res_init
     35e:	2104      	movs	r1, #4
     360:	2010      	movs	r0, #16
     362:	f7ff fffe 	bl	0 <aec_calloc>
			362: R_ARM_THM_CALL	aec_calloc
     366:	f8cb 0058 	str.w	r0, [fp, #88]	; 0x58
     36a:	4620      	mov	r0, r4
     36c:	f8db 604c 	ldr.w	r6, [fp, #76]	; 0x4c
     370:	f7ff fffe 	bl	0 <getBufNumForSB>
			370: R_ARM_THM_CALL	getBufNumForSB
     374:	0183      	lsls	r3, r0, #6
     376:	f240 0500 	movw	r5, #0
			376: R_ARM_THM_MOVW_ABS_NC	.LANCHOR0
     37a:	f2c0 0500 	movt	r5, #0
			37a: R_ARM_THM_MOVT_ABS	.LANCHOR0
     37e:	eb03 1300 	add.w	r3, r3, r0, lsl #4
     382:	4620      	mov	r0, r4
     384:	443b      	add	r3, r7
     386:	695b      	ldr	r3, [r3, #20]
     388:	f846 3024 	str.w	r3, [r6, r4, lsl #2]
     38c:	f8db 6050 	ldr.w	r6, [fp, #80]	; 0x50
     390:	f7ff fffe 	bl	0 <getBufNumForSB>
			390: R_ARM_THM_CALL	getBufNumForSB
     394:	0183      	lsls	r3, r0, #6
     396:	eb03 1300 	add.w	r3, r3, r0, lsl #4
     39a:	4620      	mov	r0, r4
     39c:	4443      	add	r3, r8
     39e:	695b      	ldr	r3, [r3, #20]
     3a0:	f846 3024 	str.w	r3, [r6, r4, lsl #2]
     3a4:	f8db 6054 	ldr.w	r6, [fp, #84]	; 0x54
     3a8:	f7ff fffe 	bl	0 <getBufNumForSB>
			3a8: R_ARM_THM_CALL	getBufNumForSB
     3ac:	0183      	lsls	r3, r0, #6
     3ae:	eb03 1300 	add.w	r3, r3, r0, lsl #4
     3b2:	4620      	mov	r0, r4
     3b4:	444b      	add	r3, r9
     3b6:	695b      	ldr	r3, [r3, #20]
     3b8:	f846 3024 	str.w	r3, [r6, r4, lsl #2]
     3bc:	f8db 6058 	ldr.w	r6, [fp, #88]	; 0x58
     3c0:	f7ff fffe 	bl	0 <getBufNumForSB>
			3c0: R_ARM_THM_CALL	getBufNumForSB
     3c4:	0183      	lsls	r3, r0, #6
     3c6:	eb03 1000 	add.w	r0, r3, r0, lsl #4
     3ca:	4450      	add	r0, sl
     3cc:	6943      	ldr	r3, [r0, #20]
     3ce:	f846 3024 	str.w	r3, [r6, r4, lsl #2]
     3d2:	3401      	adds	r4, #1
     3d4:	2c10      	cmp	r4, #16
     3d6:	d1c8      	bne.n	36a <aec_mono_init+0x36a>
     3d8:	2001      	movs	r0, #1
     3da:	65e8      	str	r0, [r5, #92]	; 0x5c
     3dc:	b00b      	add	sp, #44	; 0x2c
     3de:	e8bd 8ff0 	ldmia.w	sp!, {r4, r5, r6, r7, r8, r9, sl, fp, pc}
     3e2:	bf00      	nop
     3e4:	358637bd 	.word	0x358637bd

000003e8 <aec_mono_destroy>:
     3e8:	e92d 43f8 	stmdb	sp!, {r3, r4, r5, r6, r7, r8, r9, lr}
     3ec:	f240 0500 	movw	r5, #0
			3ec: R_ARM_THM_MOVW_ABS_NC	.LANCHOR0
     3f0:	f2c0 0500 	movt	r5, #0
			3f0: R_ARM_THM_MOVT_ABS	.LANCHOR0
     3f4:	f240 0900 	movw	r9, #0
			3f4: R_ARM_THM_MOVW_ABS_NC	g_ap_af
     3f8:	f240 0800 	movw	r8, #0
			3f8: R_ARM_THM_MOVW_ABS_NC	g_ap_af2
     3fc:	f240 0700 	movw	r7, #0
			3fc: R_ARM_THM_MOVW_ABS_NC	g_ap_af3
     400:	6828      	ldr	r0, [r5, #0]
     402:	f240 0600 	movw	r6, #0
			402: R_ARM_THM_MOVW_ABS_NC	g_ap_af4
     406:	f7ff fffe 	bl	0 <aec_free>
			406: R_ARM_THM_CALL	aec_free
     40a:	6868      	ldr	r0, [r5, #4]
     40c:	f2c0 0900 	movt	r9, #0
			40c: R_ARM_THM_MOVT_ABS	g_ap_af
     410:	f7ff fffe 	bl	0 <aec_free>
			410: R_ARM_THM_CALL	aec_free
     414:	69a8      	ldr	r0, [r5, #24]
     416:	f2c0 0800 	movt	r8, #0
			416: R_ARM_THM_MOVT_ABS	g_ap_af2
     41a:	f7ff fffe 	bl	0 <aec_free>
			41a: R_ARM_THM_CALL	aec_free
     41e:	69e8      	ldr	r0, [r5, #28]
     420:	f2c0 0700 	movt	r7, #0
			420: R_ARM_THM_MOVT_ABS	g_ap_af3
     424:	f7ff fffe 	bl	0 <aec_free>
			424: R_ARM_THM_CALL	aec_free
     428:	6aa8      	ldr	r0, [r5, #40]	; 0x28
     42a:	f2c0 0600 	movt	r6, #0
			42a: R_ARM_THM_MOVT_ABS	g_ap_af4
     42e:	f7ff fffe 	bl	0 <aec_free>
			42e: R_ARM_THM_CALL	aec_free
     432:	6a28      	ldr	r0, [r5, #32]
     434:	2400      	movs	r4, #0
     436:	f7ff fffe 	bl	0 <aec_free>
			436: R_ARM_THM_CALL	aec_free
     43a:	6a68      	ldr	r0, [r5, #36]	; 0x24
     43c:	f7ff fffe 	bl	0 <aec_free>
			43c: R_ARM_THM_CALL	aec_free
     440:	6ae8      	ldr	r0, [r5, #44]	; 0x2c
     442:	f7ff fffe 	bl	0 <aec_free>
			442: R_ARM_THM_CALL	aec_free
     446:	6ba8      	ldr	r0, [r5, #56]	; 0x38
     448:	f7ff fffe 	bl	0 <aec_free>
			448: R_ARM_THM_CALL	aec_free
     44c:	6b28      	ldr	r0, [r5, #48]	; 0x30
     44e:	f7ff fffe 	bl	0 <aec_free>
			44e: R_ARM_THM_CALL	aec_free
     452:	6b68      	ldr	r0, [r5, #52]	; 0x34
     454:	f7ff fffe 	bl	0 <aec_free>
			454: R_ARM_THM_CALL	aec_free
     458:	6be8      	ldr	r0, [r5, #60]	; 0x3c
     45a:	f7ff fffe 	bl	0 <aec_free>
			45a: R_ARM_THM_CALL	aec_free
     45e:	6ca8      	ldr	r0, [r5, #72]	; 0x48
     460:	f7ff fffe 	bl	0 <aec_free>
			460: R_ARM_THM_CALL	aec_free
     464:	6c28      	ldr	r0, [r5, #64]	; 0x40
     466:	f7ff fffe 	bl	0 <aec_free>
			466: R_ARM_THM_CALL	aec_free
     46a:	6c68      	ldr	r0, [r5, #68]	; 0x44
     46c:	f7ff fffe 	bl	0 <aec_free>
			46c: R_ARM_THM_CALL	aec_free
     470:	68a8      	ldr	r0, [r5, #8]
     472:	f7ff fffe 	bl	0 <aec_free>
			472: R_ARM_THM_CALL	aec_free
     476:	68e8      	ldr	r0, [r5, #12]
     478:	f7ff fffe 	bl	0 <aec_free>
			478: R_ARM_THM_CALL	aec_free
     47c:	6928      	ldr	r0, [r5, #16]
     47e:	f7ff fffe 	bl	0 <aec_free>
			47e: R_ARM_THM_CALL	aec_free
     482:	6968      	ldr	r0, [r5, #20]
     484:	f7ff fffe 	bl	0 <aec_free>
			484: R_ARM_THM_CALL	aec_free
     488:	f240 0000 	movw	r0, #0
			488: R_ARM_THM_MOVW_ABS_NC	g_notchMic
     48c:	f2c0 0000 	movt	r0, #0
			48c: R_ARM_THM_MOVT_ABS	g_notchMic
     490:	f7ff fffe 	bl	0 <aec_notch_destroy>
			490: R_ARM_THM_CALL	aec_notch_destroy
     494:	f240 0000 	movw	r0, #0
			494: R_ARM_THM_MOVW_ABS_NC	g_notchMic2
     498:	f2c0 0000 	movt	r0, #0
			498: R_ARM_THM_MOVT_ABS	g_notchMic2
     49c:	f7ff fffe 	bl	0 <aec_notch_destroy>
			49c: R_ARM_THM_CALL	aec_notch_destroy
     4a0:	f240 0000 	movw	r0, #0
			4a0: R_ARM_THM_MOVW_ABS_NC	g_notchMic3
     4a4:	f2c0 0000 	movt	r0, #0
			4a4: R_ARM_THM_MOVT_ABS	g_notchMic3
     4a8:	f7ff fffe 	bl	0 <aec_notch_destroy>
			4a8: R_ARM_THM_CALL	aec_notch_destroy
     4ac:	f240 0000 	movw	r0, #0
			4ac: R_ARM_THM_MOVW_ABS_NC	g_notchMic4
     4b0:	f2c0 0000 	movt	r0, #0
			4b0: R_ARM_THM_MOVT_ABS	g_notchMic4
     4b4:	f7ff fffe 	bl	0 <aec_notch_destroy>
			4b4: R_ARM_THM_CALL	aec_notch_destroy
     4b8:	f240 0000 	movw	r0, #0
			4b8: R_ARM_THM_MOVW_ABS_NC	g_notchRef
     4bc:	f2c0 0000 	movt	r0, #0
			4bc: R_ARM_THM_MOVT_ABS	g_notchRef
     4c0:	f7ff fffe 	bl	0 <aec_notch_destroy>
			4c0: R_ARM_THM_CALL	aec_notch_destroy
     4c4:	f240 0000 	movw	r0, #0
			4c4: R_ARM_THM_MOVW_ABS_NC	g_sb_chMic
     4c8:	f2c0 0000 	movt	r0, #0
			4c8: R_ARM_THM_MOVT_ABS	g_sb_chMic
     4cc:	f7ff fffe 	bl	0 <iirFilterBankDestroy>
			4cc: R_ARM_THM_CALL	iirFilterBankDestroy
     4d0:	f240 0000 	movw	r0, #0
			4d0: R_ARM_THM_MOVW_ABS_NC	g_sb_chMic2
     4d4:	f2c0 0000 	movt	r0, #0
			4d4: R_ARM_THM_MOVT_ABS	g_sb_chMic2
     4d8:	f7ff fffe 	bl	0 <iirFilterBankDestroy>
			4d8: R_ARM_THM_CALL	iirFilterBankDestroy
     4dc:	f240 0000 	movw	r0, #0
			4dc: R_ARM_THM_MOVW_ABS_NC	g_sb_chMic3
     4e0:	f2c0 0000 	movt	r0, #0
			4e0: R_ARM_THM_MOVT_ABS	g_sb_chMic3
     4e4:	f7ff fffe 	bl	0 <iirFilterBankDestroy>
			4e4: R_ARM_THM_CALL	iirFilterBankDestroy
     4e8:	f240 0000 	movw	r0, #0
			4e8: R_ARM_THM_MOVW_ABS_NC	g_sb_chMic4
     4ec:	f2c0 0000 	movt	r0, #0
			4ec: R_ARM_THM_MOVT_ABS	g_sb_chMic4
     4f0:	f7ff fffe 	bl	0 <iirFilterBankDestroy>
			4f0: R_ARM_THM_CALL	iirFilterBankDestroy
     4f4:	f240 0000 	movw	r0, #0
			4f4: R_ARM_THM_MOVW_ABS_NC	g_sb_chRef
     4f8:	f2c0 0000 	movt	r0, #0
			4f8: R_ARM_THM_MOVT_ABS	g_sb_chRef
     4fc:	f7ff fffe 	bl	0 <iirFilterBankDestroy>
			4fc: R_ARM_THM_CALL	iirFilterBankDestroy
     500:	eb09 0004 	add.w	r0, r9, r4
     504:	f7ff fffe 	bl	0 <adaptive_filter_ap_destroy>
			504: R_ARM_THM_CALL	adaptive_filter_ap_destroy
     508:	eb08 0004 	add.w	r0, r8, r4
     50c:	f7ff fffe 	bl	0 <adaptive_filter_ap_destroy>
			50c: R_ARM_THM_CALL	adaptive_filter_ap_destroy
     510:	1938      	adds	r0, r7, r4
     512:	f7ff fffe 	bl	0 <adaptive_filter_ap_destroy>
			512: R_ARM_THM_CALL	adaptive_filter_ap_destroy
     516:	1930      	adds	r0, r6, r4
     518:	3450      	adds	r4, #80	; 0x50
     51a:	f7ff fffe 	bl	0 <adaptive_filter_ap_destroy>
			51a: R_ARM_THM_CALL	adaptive_filter_ap_destroy
     51e:	f5b4 6fa0 	cmp.w	r4, #1280	; 0x500
     522:	d1ed      	bne.n	2 <aec_mono_init+0x2>
     524:	f240 0000 	movw	r0, #0
			524: R_ARM_THM_MOVW_ABS_NC	g_ref_stft
     528:	f2c0 0000 	movt	r0, #0
			528: R_ARM_THM_MOVT_ABS	g_ref_stft
     52c:	f7ff fffe 	bl	0 <stft_destroy>
			52c: R_ARM_THM_CALL	stft_destroy
     530:	f240 0000 	movw	r0, #0
			530: R_ARM_THM_MOVW_ABS_NC	g_mic_stft
     534:	f2c0 0000 	movt	r0, #0
			534: R_ARM_THM_MOVT_ABS	g_mic_stft
     538:	f7ff fffe 	bl	0 <stft_destroy>
			538: R_ARM_THM_CALL	stft_destroy
     53c:	f240 0000 	movw	r0, #0
			53c: R_ARM_THM_MOVW_ABS_NC	g_mic_stft2
     540:	f2c0 0000 	movt	r0, #0
			540: R_ARM_THM_MOVT_ABS	g_mic_stft2
     544:	f7ff fffe 	bl	0 <stft_destroy>
			544: R_ARM_THM_CALL	stft_destroy
     548:	f240 0000 	movw	r0, #0
			548: R_ARM_THM_MOVW_ABS_NC	g_res
     54c:	f2c0 0000 	movt	r0, #0
			54c: R_ARM_THM_MOVT_ABS	g_res
     550:	f7ff fffe 	bl	0 <aec_res_destroy>
			550: R_ARM_THM_CALL	aec_res_destroy
     554:	6ce8      	ldr	r0, [r5, #76]	; 0x4c
     556:	f7ff fffe 	bl	0 <aec_free>
			556: R_ARM_THM_CALL	aec_free
     55a:	f240 0000 	movw	r0, #0
			55a: R_ARM_THM_MOVW_ABS_NC	g_res2
     55e:	f2c0 0000 	movt	r0, #0
			55e: R_ARM_THM_MOVT_ABS	g_res2
     562:	f7ff fffe 	bl	0 <aec_res_destroy>
			562: R_ARM_THM_CALL	aec_res_destroy
     566:	6d28      	ldr	r0, [r5, #80]	; 0x50
     568:	f7ff fffe 	bl	0 <aec_free>
			568: R_ARM_THM_CALL	aec_free
     56c:	f240 0000 	movw	r0, #0
			56c: R_ARM_THM_MOVW_ABS_NC	g_res3
     570:	f2c0 0000 	movt	r0, #0
			570: R_ARM_THM_MOVT_ABS	g_res3
     574:	f7ff fffe 	bl	0 <aec_res_destroy>
			574: R_ARM_THM_CALL	aec_res_destroy
     578:	6d68      	ldr	r0, [r5, #84]	; 0x54
     57a:	f7ff fffe 	bl	0 <aec_free>
			57a: R_ARM_THM_CALL	aec_free
     57e:	f240 0000 	movw	r0, #0
			57e: R_ARM_THM_MOVW_ABS_NC	g_res4
     582:	f2c0 0000 	movt	r0, #0
			582: R_ARM_THM_MOVT_ABS	g_res4
     586:	f7ff fffe 	bl	0 <aec_res_destroy>
			586: R_ARM_THM_CALL	aec_res_destroy
     58a:	6da8      	ldr	r0, [r5, #88]	; 0x58
     58c:	e8bd 43f8 	ldmia.w	sp!, {r3, r4, r5, r6, r7, r8, r9, lr}
     590:	f7ff bffe 	b.w	0 <aec_free>
			590: R_ARM_THM_JUMP24	aec_free

00000594 <aec_mono_proc>:
     594:	e92d 4ff0 	stmdb	sp!, {r4, r5, r6, r7, r8, r9, sl, fp, lr}
     598:	f240 0900 	movw	r9, #0
			598: R_ARM_THM_MOVW_ABS_NC	.LANCHOR0
     59c:	f2c0 0900 	movt	r9, #0
			59c: R_ARM_THM_MOVT_ABS	.LANCHOR0
     5a0:	ed2d 8b02 	vpush	{d8}
     5a4:	b0af      	sub	sp, #188	; 0xbc
     5a6:	f64f 75ef 	movw	r5, #65519	; 0xffef
     5aa:	f8d9 4060 	ldr.w	r4, [r9, #96]	; 0x60
     5ae:	f6c7 75ff 	movt	r5, #32767	; 0x7fff
     5b2:	9310      	str	r3, [sp, #64]	; 0x40
     5b4:	4682      	mov	sl, r0
     5b6:	f8d9 305c 	ldr.w	r3, [r9, #92]	; 0x5c
     5ba:	4688      	mov	r8, r1
     5bc:	42ac      	cmp	r4, r5
     5be:	9211      	str	r2, [sp, #68]	; 0x44
     5c0:	bfdc      	itt	le
     5c2:	3401      	addle	r4, #1
     5c4:	f8c9 4060 	strle.w	r4, [r9, #96]	; 0x60
     5c8:	2b00      	cmp	r3, #0
     5ca:	f000 852d 	beq.w	1028 <aec_mono_proc+0xa94>
     5ce:	f8d9 3004 	ldr.w	r3, [r9, #4]
     5d2:	f8d9 b01c 	ldr.w	fp, [r9, #28]
     5d6:	f8d9 602c 	ldr.w	r6, [r9, #44]	; 0x2c
     5da:	9304      	str	r3, [sp, #16]
     5dc:	f8d9 3000 	ldr.w	r3, [r9]
     5e0:	f8d9 503c 	ldr.w	r5, [r9, #60]	; 0x3c
     5e4:	9305      	str	r3, [sp, #20]
     5e6:	9b10      	ldr	r3, [sp, #64]	; 0x40
     5e8:	2b04      	cmp	r3, #4
     5ea:	f000 8689 	beq.w	1300 <aec_mono_proc+0xd6c>
     5ee:	2b02      	cmp	r3, #2
     5f0:	f000 84d8 	beq.w	fa4 <aec_mono_proc+0xa10>
     5f4:	f240 0300 	movw	r3, #0
			5f4: R_ARM_THM_MOVW_ABS_NC	g_fb_eql
     5f8:	9904      	ldr	r1, [sp, #16]
     5fa:	f2c0 0300 	movt	r3, #0
			5fa: R_ARM_THM_MOVT_ABS	g_fb_eql
     5fe:	f44f 7280 	mov.w	r2, #256	; 0x100
     602:	9805      	ldr	r0, [sp, #20]
     604:	2402      	movs	r4, #2
     606:	f7ff fffe 	bl	0 <time_equalize>
			606: R_ARM_THM_CALL	time_equalize
     60a:	f240 0200 	movw	r2, #0
			60a: R_ARM_THM_MOVW_ABS_NC	g_notchMic
     60e:	f44f 7180 	mov.w	r1, #256	; 0x100
     612:	f2c0 0200 	movt	r2, #0
			612: R_ARM_THM_MOVT_ABS	g_notchMic
     616:	f8d9 0000 	ldr.w	r0, [r9]
     61a:	f7ff fffe 	bl	0 <aec_notch>
			61a: R_ARM_THM_CALL	aec_notch
     61e:	f240 0200 	movw	r2, #0
			61e: R_ARM_THM_MOVW_ABS_NC	g_notchMic2
     622:	f44f 7180 	mov.w	r1, #256	; 0x100
     626:	f2c0 0200 	movt	r2, #0
			626: R_ARM_THM_MOVT_ABS	g_notchMic2
     62a:	f8d9 001c 	ldr.w	r0, [r9, #28]
     62e:	f7ff fffe 	bl	0 <aec_notch>
			62e: R_ARM_THM_CALL	aec_notch
     632:	f240 0200 	movw	r2, #0
			632: R_ARM_THM_MOVW_ABS_NC	g_notchMic3
     636:	f44f 7180 	mov.w	r1, #256	; 0x100
     63a:	f2c0 0200 	movt	r2, #0
			63a: R_ARM_THM_MOVT_ABS	g_notchMic3
     63e:	f8d9 002c 	ldr.w	r0, [r9, #44]	; 0x2c
     642:	f7ff fffe 	bl	0 <aec_notch>
			642: R_ARM_THM_CALL	aec_notch
     646:	f240 0200 	movw	r2, #0
			646: R_ARM_THM_MOVW_ABS_NC	g_notchMic4
     64a:	f44f 7180 	mov.w	r1, #256	; 0x100
     64e:	f2c0 0200 	movt	r2, #0
			64e: R_ARM_THM_MOVT_ABS	g_notchMic4
     652:	f8d9 003c 	ldr.w	r0, [r9, #60]	; 0x3c
     656:	f7ff fffe 	bl	0 <aec_notch>
			656: R_ARM_THM_CALL	aec_notch
     65a:	f240 0200 	movw	r2, #0
			65a: R_ARM_THM_MOVW_ABS_NC	g_notchRef
     65e:	f44f 7180 	mov.w	r1, #256	; 0x100
     662:	f2c0 0200 	movt	r2, #0
			662: R_ARM_THM_MOVT_ABS	g_notchRef
     666:	f8d9 0004 	ldr.w	r0, [r9, #4]
     66a:	f7ff fffe 	bl	0 <aec_notch>
			66a: R_ARM_THM_CALL	aec_notch
     66e:	f8d9 0008 	ldr.w	r0, [r9, #8]
     672:	f240 0300 	movw	r3, #0
			672: R_ARM_THM_MOVW_ABS_NC	g_ap_af
     676:	461d      	mov	r5, r3
     678:	f240 0300 	movw	r3, #0
			678: R_ARM_THM_MOVW_ABS_NC	g_ap_af2
     67c:	f44f 6288 	mov.w	r2, #1088	; 0x440
     680:	461e      	mov	r6, r3
     682:	f100 0140 	add.w	r1, r0, #64	; 0x40
     686:	f240 0300 	movw	r3, #0
			686: R_ARM_THM_MOVW_ABS_NC	g_ap_af3
     68a:	461f      	mov	r7, r3
     68c:	f240 0b00 	movw	fp, #0
			68c: R_ARM_THM_MOVW_ABS_NC	g_ap_af4
     690:	f7ff fffe 	bl	0 <memmove>
			690: R_ARM_THM_CALL	memmove
     694:	462b      	mov	r3, r5
     696:	f8d9 0020 	ldr.w	r0, [r9, #32]
     69a:	f2c0 0300 	movt	r3, #0
			69a: R_ARM_THM_MOVT_ABS	g_ap_af
     69e:	f44f 6288 	mov.w	r2, #1088	; 0x440
     6a2:	9305      	str	r3, [sp, #20]
     6a4:	4633      	mov	r3, r6
     6a6:	f2c0 0300 	movt	r3, #0
			6a6: R_ARM_THM_MOVT_ABS	g_ap_af2
     6aa:	f100 0140 	add.w	r1, r0, #64	; 0x40
     6ae:	9307      	str	r3, [sp, #28]
     6b0:	463b      	mov	r3, r7
     6b2:	f2c0 0300 	movt	r3, #0
			6b2: R_ARM_THM_MOVT_ABS	g_ap_af3
     6b6:	f2c0 0b00 	movt	fp, #0
			6b6: R_ARM_THM_MOVT_ABS	g_ap_af4
     6ba:	9306      	str	r3, [sp, #24]
     6bc:	f04f 0a00 	mov.w	sl, #0
     6c0:	f7ff fffe 	bl	0 <memmove>
			6c0: R_ARM_THM_CALL	memmove
     6c4:	f8d9 0030 	ldr.w	r0, [r9, #48]	; 0x30
     6c8:	f44f 6288 	mov.w	r2, #1088	; 0x440
     6cc:	f100 0140 	add.w	r1, r0, #64	; 0x40
     6d0:	f7ff fffe 	bl	0 <memmove>
			6d0: R_ARM_THM_CALL	memmove
     6d4:	f8d9 0040 	ldr.w	r0, [r9, #64]	; 0x40
     6d8:	f44f 6288 	mov.w	r2, #1088	; 0x440
     6dc:	f100 0140 	add.w	r1, r0, #64	; 0x40
     6e0:	f7ff fffe 	bl	0 <memmove>
			6e0: R_ARM_THM_CALL	memmove
     6e4:	f8d9 000c 	ldr.w	r0, [r9, #12]
     6e8:	f44f 52a0 	mov.w	r2, #5120	; 0x1400
     6ec:	f100 0140 	add.w	r1, r0, #64	; 0x40
     6f0:	f7ff fffe 	bl	0 <memmove>
			6f0: R_ARM_THM_CALL	memmove
     6f4:	f240 0300 	movw	r3, #0
			6f4: R_ARM_THM_MOVW_ABS_NC	g_sb_chMic
     6f8:	f8d9 1010 	ldr.w	r1, [r9, #16]
     6fc:	f8d9 0000 	ldr.w	r0, [r9]
     700:	f2c0 0300 	movt	r3, #0
			700: R_ARM_THM_MOVT_ABS	g_sb_chMic
     704:	f44f 7280 	mov.w	r2, #256	; 0x100
     708:	9400      	str	r4, [sp, #0]
     70a:	f7ff fffe 	bl	0 <iirAnalyze>
			70a: R_ARM_THM_CALL	iirAnalyze
     70e:	f240 0300 	movw	r3, #0
			70e: R_ARM_THM_MOVW_ABS_NC	g_sb_chMic2
     712:	f8d9 1024 	ldr.w	r1, [r9, #36]	; 0x24
     716:	f8d9 001c 	ldr.w	r0, [r9, #28]
     71a:	f2c0 0300 	movt	r3, #0
			71a: R_ARM_THM_MOVT_ABS	g_sb_chMic2
     71e:	f44f 7280 	mov.w	r2, #256	; 0x100
     722:	9400      	str	r4, [sp, #0]
     724:	f7ff fffe 	bl	0 <iirAnalyze>
			724: R_ARM_THM_CALL	iirAnalyze
     728:	f240 0300 	movw	r3, #0
			728: R_ARM_THM_MOVW_ABS_NC	g_sb_chMic3
     72c:	f8d9 1034 	ldr.w	r1, [r9, #52]	; 0x34
     730:	f8d9 002c 	ldr.w	r0, [r9, #44]	; 0x2c
     734:	f2c0 0300 	movt	r3, #0
			734: R_ARM_THM_MOVT_ABS	g_sb_chMic3
     738:	f44f 7280 	mov.w	r2, #256	; 0x100
     73c:	9400      	str	r4, [sp, #0]
     73e:	f7ff fffe 	bl	0 <iirAnalyze>
			73e: R_ARM_THM_CALL	iirAnalyze
     742:	f240 0300 	movw	r3, #0
			742: R_ARM_THM_MOVW_ABS_NC	g_sb_chMic4
     746:	f8d9 1044 	ldr.w	r1, [r9, #68]	; 0x44
     74a:	f8d9 003c 	ldr.w	r0, [r9, #60]	; 0x3c
     74e:	f2c0 0300 	movt	r3, #0
			74e: R_ARM_THM_MOVT_ABS	g_sb_chMic4
     752:	f44f 7280 	mov.w	r2, #256	; 0x100
     756:	9400      	str	r4, [sp, #0]
     758:	f7ff fffe 	bl	0 <iirAnalyze>
			758: R_ARM_THM_CALL	iirAnalyze
     75c:	2241      	movs	r2, #65	; 0x41
     75e:	f240 0300 	movw	r3, #0
			75e: R_ARM_THM_MOVW_ABS_NC	g_sb_chRef
     762:	f8d9 1014 	ldr.w	r1, [r9, #20]
     766:	f2c0 0300 	movt	r3, #0
			766: R_ARM_THM_MOVT_ABS	g_sb_chRef
     76a:	f8d9 0004 	ldr.w	r0, [r9, #4]
     76e:	9200      	str	r2, [sp, #0]
     770:	f44f 7280 	mov.w	r2, #256	; 0x100
     774:	f7ff fffe 	bl	0 <iirAnalyze>
			774: R_ARM_THM_CALL	iirAnalyze
     778:	f8cd b020 	str.w	fp, [sp, #32]
     77c:	4653      	mov	r3, sl
     77e:	46cb      	mov	fp, r9
     780:	f8cd a010 	str.w	sl, [sp, #16]
     784:	011c      	lsls	r4, r3, #4
     786:	f8db 0028 	ldr.w	r0, [fp, #40]	; 0x28
     78a:	f8db 1048 	ldr.w	r1, [fp, #72]	; 0x48
     78e:	2700      	movs	r7, #0
     790:	f8db 2038 	ldr.w	r2, [fp, #56]	; 0x38
     794:	f8db 3018 	ldr.w	r3, [fp, #24]
     798:	4420      	add	r0, r4
     79a:	4421      	add	r1, r4
     79c:	9009      	str	r0, [sp, #36]	; 0x24
     79e:	4422      	add	r2, r4
     7a0:	910b      	str	r1, [sp, #44]	; 0x2c
     7a2:	4423      	add	r3, r4
     7a4:	920a      	str	r2, [sp, #40]	; 0x28
     7a6:	930e      	str	r3, [sp, #56]	; 0x38
     7a8:	9d04      	ldr	r5, [sp, #16]
     7aa:	f107 0808 	add.w	r8, r7, #8
     7ae:	f8db 3014 	ldr.w	r3, [fp, #20]
     7b2:	f8db 2034 	ldr.w	r2, [fp, #52]	; 0x34
     7b6:	f8db 0010 	ldr.w	r0, [fp, #16]
     7ba:	595e      	ldr	r6, [r3, r5]
     7bc:	5952      	ldr	r2, [r2, r5]
     7be:	f8db 3044 	ldr.w	r3, [fp, #68]	; 0x44
     7c2:	f8db 4024 	ldr.w	r4, [fp, #36]	; 0x24
     7c6:	443e      	add	r6, r7
     7c8:	f850 a005 	ldr.w	sl, [r0, r5]
     7cc:	4630      	mov	r0, r6
     7ce:	9905      	ldr	r1, [sp, #20]
     7d0:	f854 9005 	ldr.w	r9, [r4, r5]
     7d4:	9202      	str	r2, [sp, #8]
     7d6:	595d      	ldr	r5, [r3, r5]
     7d8:	f7ff fffe 	bl	0 <adaptive_filter_ap_getFilteredSamples>
			7d8: R_ARM_THM_CALL	adaptive_filter_ap_getFilteredSamples
     7dc:	9c07      	ldr	r4, [sp, #28]
     7de:	4630      	mov	r0, r6
     7e0:	4621      	mov	r1, r4
     7e2:	f7ff fffe 	bl	0 <adaptive_filter_ap_getFilteredSamples>
			7e2: R_ARM_THM_CALL	adaptive_filter_ap_getFilteredSamples
     7e6:	4630      	mov	r0, r6
     7e8:	9906      	ldr	r1, [sp, #24]
     7ea:	f7ff fffe 	bl	0 <adaptive_filter_ap_getFilteredSamples>
			7ea: R_ARM_THM_CALL	adaptive_filter_ap_getFilteredSamples
     7ee:	4630      	mov	r0, r6
     7f0:	9908      	ldr	r1, [sp, #32]
     7f2:	f7ff fffe 	bl	0 <adaptive_filter_ap_getFilteredSamples>
			7f2: R_ARM_THM_CALL	adaptive_filter_ap_getFilteredSamples
     7f6:	9b05      	ldr	r3, [sp, #20]
     7f8:	6ae1      	ldr	r1, [r4, #44]	; 0x2c
     7fa:	9407      	str	r4, [sp, #28]
     7fc:	6ad8      	ldr	r0, [r3, #44]	; 0x2c
     7fe:	eb0a 0307 	add.w	r3, sl, r7
     802:	ed93 6a00 	vldr	s12, [r3]
     806:	eb09 0307 	add.w	r3, r9, r7
     80a:	edd1 6a00 	vldr	s13, [r1]
     80e:	edd0 7a00 	vldr	s15, [r0]
     812:	4604      	mov	r4, r0
     814:	9806      	ldr	r0, [sp, #24]
     816:	9a02      	ldr	r2, [sp, #8]
     818:	910d      	str	r1, [sp, #52]	; 0x34
     81a:	6ac0      	ldr	r0, [r0, #44]	; 0x2c
     81c:	ee36 6a67 	vsub.f32	s12, s12, s15
     820:	443a      	add	r2, r7
     822:	940c      	str	r4, [sp, #48]	; 0x30
     824:	9003      	str	r0, [sp, #12]
     826:	9808      	ldr	r0, [sp, #32]
     828:	f8d0 c02c 	ldr.w	ip, [r0, #44]	; 0x2c
     82c:	9803      	ldr	r0, [sp, #12]
     82e:	eddc 7a00 	vldr	s15, [ip]
     832:	ed90 7a00 	vldr	s14, [r0]
     836:	19e8      	adds	r0, r5, r7
     838:	ed8d 6a12 	vstr	s12, [sp, #72]	; 0x48
     83c:	ed93 6a00 	vldr	s12, [r3]
     840:	1d3b      	adds	r3, r7, #4
     842:	eb0a 0e03 	add.w	lr, sl, r3
     846:	eb09 0603 	add.w	r6, r9, r3
     84a:	960f      	str	r6, [sp, #60]	; 0x3c
     84c:	370c      	adds	r7, #12
     84e:	eb0a 0607 	add.w	r6, sl, r7
     852:	ee76 6a66 	vsub.f32	s13, s12, s13
     856:	edcd 6a16 	vstr	s13, [sp, #88]	; 0x58
     85a:	edd2 6a00 	vldr	s13, [r2]
     85e:	9a02      	ldr	r2, [sp, #8]
     860:	ee36 7ac7 	vsub.f32	s14, s13, s14
     864:	441a      	add	r2, r3
     866:	442b      	add	r3, r5
     868:	ed8d 7a1a 	vstr	s14, [sp, #104]	; 0x68
     86c:	ed90 7a00 	vldr	s14, [r0]
     870:	eb0a 0008 	add.w	r0, sl, r8
     874:	eb09 0a07 	add.w	sl, r9, r7
     878:	ee77 7a67 	vsub.f32	s15, s14, s15
     87c:	edcd 7a1e 	vstr	s15, [sp, #120]	; 0x78
     880:	edde 5a00 	vldr	s11, [lr]
     884:	eb09 0e08 	add.w	lr, r9, r8
     888:	ed94 6a01 	vldr	s12, [r4, #4]
     88c:	edd1 6a01 	vldr	s13, [r1, #4]
     890:	9903      	ldr	r1, [sp, #12]
     892:	eddc 7a01 	vldr	s15, [ip, #4]
     896:	ee35 6ac6 	vsub.f32	s12, s11, s12
     89a:	ed91 7a01 	vldr	s14, [r1, #4]
     89e:	ed8d 6a13 	vstr	s12, [sp, #76]	; 0x4c
     8a2:	990f      	ldr	r1, [sp, #60]	; 0x3c
     8a4:	ed91 6a00 	vldr	s12, [r1]
     8a8:	9902      	ldr	r1, [sp, #8]
     8aa:	ee76 6a66 	vsub.f32	s13, s12, s13
     8ae:	eb01 0908 	add.w	r9, r1, r8
     8b2:	9902      	ldr	r1, [sp, #8]
     8b4:	f8cd 903c 	str.w	r9, [sp, #60]	; 0x3c
     8b8:	eb05 0908 	add.w	r9, r5, r8
     8bc:	edcd 6a17 	vstr	s13, [sp, #92]	; 0x5c
     8c0:	4439      	add	r1, r7
     8c2:	edd2 6a00 	vldr	s13, [r2]
     8c6:	19ef      	adds	r7, r5, r7
     8c8:	9d03      	ldr	r5, [sp, #12]
     8ca:	460c      	mov	r4, r1
     8cc:	9a05      	ldr	r2, [sp, #20]
     8ce:	2100      	movs	r1, #0
     8d0:	9702      	str	r7, [sp, #8]
     8d2:	4647      	mov	r7, r8
     8d4:	ee36 7ac7 	vsub.f32	s14, s13, s14
     8d8:	f10d 0848 	add.w	r8, sp, #72	; 0x48
     8dc:	ed8d 7a1b 	vstr	s14, [sp, #108]	; 0x6c
     8e0:	ed93 7a00 	vldr	s14, [r3]
     8e4:	9b0d      	ldr	r3, [sp, #52]	; 0x34
     8e6:	ee77 7a67 	vsub.f32	s15, s14, s15
     8ea:	edcd 7a1f 	vstr	s15, [sp, #124]	; 0x7c
     8ee:	ed90 7a00 	vldr	s14, [r0]
     8f2:	980c      	ldr	r0, [sp, #48]	; 0x30
     8f4:	eddc 6a02 	vldr	s13, [ip, #8]
     8f8:	edd3 5a02 	vldr	s11, [r3, #8]
     8fc:	edd0 7a02 	vldr	s15, [r0, #8]
     900:	4640      	mov	r0, r8
     902:	ed95 6a02 	vldr	s12, [r5, #8]
     906:	f240 0500 	movw	r5, #0
			906: R_ARM_THM_MOVW_ABS_NC	.LANCHOR0
     90a:	9b0f      	ldr	r3, [sp, #60]	; 0x3c
     90c:	f2c0 0500 	movt	r5, #0
			90c: R_ARM_THM_MOVT_ABS	.LANCHOR0
     910:	ee77 7a67 	vsub.f32	s15, s14, s15
     914:	edcd 7a14 	vstr	s15, [sp, #80]	; 0x50
     918:	ed9e 7a00 	vldr	s14, [lr]
     91c:	ee37 7a65 	vsub.f32	s14, s14, s11
     920:	ed8d 7a18 	vstr	s14, [sp, #96]	; 0x60
     924:	ed93 7a00 	vldr	s14, [r3]
     928:	9b0c      	ldr	r3, [sp, #48]	; 0x30
     92a:	ee37 7a46 	vsub.f32	s14, s14, s12
     92e:	ed8d 7a1c 	vstr	s14, [sp, #112]	; 0x70
     932:	ed99 7a00 	vldr	s14, [r9]
     936:	ee37 7a66 	vsub.f32	s14, s14, s13
     93a:	ed8d 7a20 	vstr	s14, [sp, #128]	; 0x80
     93e:	ed96 5a00 	vldr	s10, [r6]
     942:	edd3 5a03 	vldr	s11, [r3, #12]
     946:	9b0d      	ldr	r3, [sp, #52]	; 0x34
     948:	ee75 5a65 	vsub.f32	s11, s10, s11
     94c:	ed93 6a03 	vldr	s12, [r3, #12]
     950:	9b03      	ldr	r3, [sp, #12]
     952:	ed9c 7a03 	vldr	s14, [ip, #12]
     956:	9e09      	ldr	r6, [sp, #36]	; 0x24
     958:	edd3 6a03 	vldr	s13, [r3, #12]
     95c:	edcd 5a15 	vstr	s11, [sp, #84]	; 0x54
     960:	edda 5a00 	vldr	s11, [sl]
     964:	9b02      	ldr	r3, [sp, #8]
     966:	ee35 6ac6 	vsub.f32	s12, s11, s12
     96a:	ed8d 6a19 	vstr	s12, [sp, #100]	; 0x64
     96e:	ed94 6a00 	vldr	s12, [r4]
     972:	9c0e      	ldr	r4, [sp, #56]	; 0x38
     974:	ee76 6a66 	vsub.f32	s13, s12, s13
     978:	edcd 6a1d 	vstr	s13, [sp, #116]	; 0x74
     97c:	edd3 6a00 	vldr	s13, [r3]
     980:	ee36 7ac7 	vsub.f32	s14, s13, s14
     984:	ed8d 7a21 	vstr	s14, [sp, #132]	; 0x84
     988:	edc4 7a00 	vstr	s15, [r4]
     98c:	9b18      	ldr	r3, [sp, #96]	; 0x60
     98e:	6033      	str	r3, [r6, #0]
     990:	9e0a      	ldr	r6, [sp, #40]	; 0x28
     992:	9b1c      	ldr	r3, [sp, #112]	; 0x70
     994:	6033      	str	r3, [r6, #0]
     996:	9e0b      	ldr	r6, [sp, #44]	; 0x2c
     998:	9b20      	ldr	r3, [sp, #128]	; 0x80
     99a:	6033      	str	r3, [r6, #0]
     99c:	9e09      	ldr	r6, [sp, #36]	; 0x24
     99e:	9b15      	ldr	r3, [sp, #84]	; 0x54
     9a0:	6063      	str	r3, [r4, #4]
     9a2:	4623      	mov	r3, r4
     9a4:	3308      	adds	r3, #8
     9a6:	930e      	str	r3, [sp, #56]	; 0x38
     9a8:	9b19      	ldr	r3, [sp, #100]	; 0x64
     9aa:	6073      	str	r3, [r6, #4]
     9ac:	4633      	mov	r3, r6
     9ae:	3308      	adds	r3, #8
     9b0:	9e0a      	ldr	r6, [sp, #40]	; 0x28
     9b2:	9309      	str	r3, [sp, #36]	; 0x24
     9b4:	9b1d      	ldr	r3, [sp, #116]	; 0x74
     9b6:	6073      	str	r3, [r6, #4]
     9b8:	f106 0308 	add.w	r3, r6, #8
     9bc:	930a      	str	r3, [sp, #40]	; 0x28
     9be:	9b21      	ldr	r3, [sp, #132]	; 0x84
     9c0:	9e0b      	ldr	r6, [sp, #44]	; 0x2c
     9c2:	6073      	str	r3, [r6, #4]
     9c4:	f106 0308 	add.w	r3, r6, #8
     9c8:	930b      	str	r3, [sp, #44]	; 0x2c
     9ca:	f7ff fffe 	bl	0 <adaptive_filter_ap_update>
			9ca: R_ARM_THM_CALL	adaptive_filter_ap_update
     9ce:	ab16      	add	r3, sp, #88	; 0x58
     9d0:	9a07      	ldr	r2, [sp, #28]
     9d2:	2100      	movs	r1, #0
     9d4:	4618      	mov	r0, r3
     9d6:	f7ff fffe 	bl	0 <adaptive_filter_ap_update>
			9d6: R_ARM_THM_CALL	adaptive_filter_ap_update
     9da:	ab1a      	add	r3, sp, #104	; 0x68
     9dc:	9a06      	ldr	r2, [sp, #24]
     9de:	2100      	movs	r1, #0
     9e0:	4618      	mov	r0, r3
     9e2:	f7ff fffe 	bl	0 <adaptive_filter_ap_update>
			9e2: R_ARM_THM_CALL	adaptive_filter_ap_update
     9e6:	9a08      	ldr	r2, [sp, #32]
     9e8:	2100      	movs	r1, #0
     9ea:	a81e      	add	r0, sp, #120	; 0x78
     9ec:	f7ff fffe 	bl	0 <adaptive_filter_ap_update>
			9ec: R_ARM_THM_CALL	adaptive_filter_ap_update
     9f0:	2f40      	cmp	r7, #64	; 0x40
     9f2:	f47f aed9 	bne.w	7a8 <aec_mono_proc+0x214>
     9f6:	9a05      	ldr	r2, [sp, #20]
     9f8:	9b04      	ldr	r3, [sp, #16]
     9fa:	3250      	adds	r2, #80	; 0x50
     9fc:	9205      	str	r2, [sp, #20]
     9fe:	3304      	adds	r3, #4
     a00:	9a07      	ldr	r2, [sp, #28]
     a02:	2b40      	cmp	r3, #64	; 0x40
     a04:	9304      	str	r3, [sp, #16]
     a06:	f102 0250 	add.w	r2, r2, #80	; 0x50
     a0a:	9207      	str	r2, [sp, #28]
     a0c:	9a06      	ldr	r2, [sp, #24]
     a0e:	f102 0250 	add.w	r2, r2, #80	; 0x50
     a12:	9206      	str	r2, [sp, #24]
     a14:	9a08      	ldr	r2, [sp, #32]
     a16:	f102 0250 	add.w	r2, r2, #80	; 0x50
     a1a:	9208      	str	r2, [sp, #32]
     a1c:	f47f aeb2 	bne.w	784 <aec_mono_proc+0x1f0>
     a20:	69ab      	ldr	r3, [r5, #24]
     a22:	46d9      	mov	r9, fp
     a24:	f8d5 e048 	ldr.w	lr, [r5, #72]	; 0x48
     a28:	692a      	ldr	r2, [r5, #16]
     a2a:	9305      	str	r3, [sp, #20]
     a2c:	4698      	mov	r8, r3
     a2e:	6b6b      	ldr	r3, [r5, #52]	; 0x34
     a30:	f50e 6180 	add.w	r1, lr, #1024	; 0x400
     a34:	9104      	str	r1, [sp, #16]
     a36:	4610      	mov	r0, r2
     a38:	6c69      	ldr	r1, [r5, #68]	; 0x44
     a3a:	3804      	subs	r0, #4
     a3c:	3b04      	subs	r3, #4
     a3e:	9206      	str	r2, [sp, #24]
     a40:	9302      	str	r3, [sp, #8]
     a42:	4682      	mov	sl, r0
     a44:	6a6a      	ldr	r2, [r5, #36]	; 0x24
     a46:	f1a1 0b04 	sub.w	fp, r1, #4
     a4a:	f8d5 c028 	ldr.w	ip, [r5, #40]	; 0x28
     a4e:	6bab      	ldr	r3, [r5, #56]	; 0x38
     a50:	3a04      	subs	r2, #4
     a52:	f8cd 901c 	str.w	r9, [sp, #28]
     a56:	9203      	str	r2, [sp, #12]
     a58:	9a03      	ldr	r2, [sp, #12]
     a5a:	f103 0940 	add.w	r9, r3, #64	; 0x40
     a5e:	f85a 7f04 	ldr.w	r7, [sl, #4]!
     a62:	4675      	mov	r5, lr
     a64:	f85b 1f04 	ldr.w	r1, [fp, #4]!
     a68:	4660      	mov	r0, ip
     a6a:	f852 6f04 	ldr.w	r6, [r2, #4]!
     a6e:	9203      	str	r2, [sp, #12]
     a70:	9a02      	ldr	r2, [sp, #8]
     a72:	f852 4f04 	ldr.w	r4, [r2, #4]!
     a76:	9202      	str	r2, [sp, #8]
     a78:	4642      	mov	r2, r8
     a7a:	ecf2 7a01 	vldmia	r2!, {s15}
     a7e:	ece7 7a01 	vstmia	r7!, {s15}
     a82:	ecf0 7a01 	vldmia	r0!, {s15}
     a86:	ece6 7a01 	vstmia	r6!, {s15}
     a8a:	ecf3 7a01 	vldmia	r3!, {s15}
     a8e:	ece4 7a01 	vstmia	r4!, {s15}
     a92:	454b      	cmp	r3, r9
     a94:	ecf5 7a01 	vldmia	r5!, {s15}
     a98:	ece1 7a01 	vstmia	r1!, {s15}
     a9c:	d1ed      	bne.n	a7a <aec_mono_proc+0x4e6>
     a9e:	9a04      	ldr	r2, [sp, #16]
     aa0:	f10e 0e40 	add.w	lr, lr, #64	; 0x40
     aa4:	f108 0840 	add.w	r8, r8, #64	; 0x40
     aa8:	f10c 0c40 	add.w	ip, ip, #64	; 0x40
     aac:	4596      	cmp	lr, r2
     aae:	d1d3      	bne.n	a58 <aec_mono_proc+0x4c4>
     ab0:	f8dd 901c 	ldr.w	r9, [sp, #28]
     ab4:	f240 0300 	movw	r3, #0
			ab4: R_ARM_THM_MOVW_ABS_NC	g_sb_chMic
     ab8:	9905      	ldr	r1, [sp, #20]
     aba:	f2c0 0300 	movt	r3, #0
			aba: R_ARM_THM_MOVT_ABS	g_sb_chMic
     abe:	9806      	ldr	r0, [sp, #24]
     ac0:	2210      	movs	r2, #16
     ac2:	f7ff fffe 	bl	0 <iirSynthes>
			ac2: R_ARM_THM_CALL	iirSynthes
     ac6:	f240 0300 	movw	r3, #0
			ac6: R_ARM_THM_MOVW_ABS_NC	g_sb_chMic2
     aca:	2210      	movs	r2, #16
     acc:	f2c0 0300 	movt	r3, #0
			acc: R_ARM_THM_MOVT_ABS	g_sb_chMic2
     ad0:	f8d9 1028 	ldr.w	r1, [r9, #40]	; 0x28
     ad4:	f8d9 0024 	ldr.w	r0, [r9, #36]	; 0x24
     ad8:	f240 0500 	movw	r5, #0
			ad8: R_ARM_THM_MOVW_ABS_NC	g_mic_stft2
     adc:	f7ff fffe 	bl	0 <iirSynthes>
			adc: R_ARM_THM_CALL	iirSynthes
     ae0:	f240 0300 	movw	r3, #0
			ae0: R_ARM_THM_MOVW_ABS_NC	g_sb_chMic3
     ae4:	f240 0c00 	movw	ip, #0
			ae4: R_ARM_THM_MOVW_ABS_NC	g_res
     ae8:	2210      	movs	r2, #16
     aea:	f2c0 0300 	movt	r3, #0
			aea: R_ARM_THM_MOVT_ABS	g_sb_chMic3
     aee:	f8d9 1038 	ldr.w	r1, [r9, #56]	; 0x38
     af2:	462e      	mov	r6, r5
     af4:	f8d9 0034 	ldr.w	r0, [r9, #52]	; 0x34
     af8:	ad1e      	add	r5, sp, #120	; 0x78
     afa:	f8cd c008 	str.w	ip, [sp, #8]
     afe:	f240 0400 	movw	r4, #0
			afe: R_ARM_THM_MOVW_ABS_NC	g_ref_stft
     b02:	f7ff fffe 	bl	0 <iirSynthes>
			b02: R_ARM_THM_CALL	iirSynthes
     b06:	f240 0300 	movw	r3, #0
			b06: R_ARM_THM_MOVW_ABS_NC	g_sb_chMic4
     b0a:	2210      	movs	r2, #16
     b0c:	f2c0 0300 	movt	r3, #0
			b0c: R_ARM_THM_MOVT_ABS	g_sb_chMic4
     b10:	f8d9 1048 	ldr.w	r1, [r9, #72]	; 0x48
     b14:	f8d9 0044 	ldr.w	r0, [r9, #68]	; 0x44
     b18:	f2c0 0400 	movt	r4, #0
			b18: R_ARM_THM_MOVT_ABS	g_ref_stft
     b1c:	f7ff fffe 	bl	0 <iirSynthes>
			b1c: R_ARM_THM_CALL	iirSynthes
     b20:	f8dd c008 	ldr.w	ip, [sp, #8]
     b24:	f240 0700 	movw	r7, #0
			b24: R_ARM_THM_MOVW_ABS_NC	g_mic_stft
     b28:	f04f 537e 	mov.w	r3, #1065353216	; 0x3f800000
     b2c:	f2c0 0700 	movt	r7, #0
			b2c: R_ARM_THM_MOVT_ABS	g_mic_stft
     b30:	4622      	mov	r2, r4
     b32:	2100      	movs	r1, #0
     b34:	f2c0 0c00 	movt	ip, #0
			b34: R_ARM_THM_MOVT_ABS	g_res
     b38:	f8d9 0004 	ldr.w	r0, [r9, #4]
     b3c:	f8cc 5018 	str.w	r5, [ip, #24]
     b40:	4635      	mov	r5, r6
     b42:	f2c0 0500 	movt	r5, #0
			b42: R_ARM_THM_MOVT_ABS	g_mic_stft2
     b46:	f240 0800 	movw	r8, #0
			b46: R_ARM_THM_MOVW_ABS_NC	g_res2
     b4a:	f8cd c00c 	str.w	ip, [sp, #12]
     b4e:	462e      	mov	r6, r5
     b50:	f2c0 0800 	movt	r8, #0
			b50: R_ARM_THM_MOVT_ABS	g_res2
     b54:	931e      	str	r3, [sp, #120]	; 0x78
     b56:	931f      	str	r3, [sp, #124]	; 0x7c
     b58:	f240 0a00 	movw	sl, #0
			b58: R_ARM_THM_MOVW_ABS_NC	g_res3
     b5c:	9320      	str	r3, [sp, #128]	; 0x80
     b5e:	f240 0b00 	movw	fp, #0
			b5e: R_ARM_THM_MOVW_ABS_NC	g_res4
     b62:	9321      	str	r3, [sp, #132]	; 0x84
     b64:	f2c0 0a00 	movt	sl, #0
			b64: R_ARM_THM_MOVT_ABS	g_res3
     b68:	9322      	str	r3, [sp, #136]	; 0x88
     b6a:	f2c0 0b00 	movt	fp, #0
			b6a: R_ARM_THM_MOVT_ABS	g_res4
     b6e:	9323      	str	r3, [sp, #140]	; 0x8c
     b70:	f240 0500 	movw	r5, #0
			b70: R_ARM_THM_MOVW_ABS_NC	.LANCHOR0
     b74:	9324      	str	r3, [sp, #144]	; 0x90
     b76:	f2c0 0500 	movt	r5, #0
			b76: R_ARM_THM_MOVT_ABS	.LANCHOR0
     b7a:	9325      	str	r3, [sp, #148]	; 0x94
     b7c:	9326      	str	r3, [sp, #152]	; 0x98
     b7e:	9327      	str	r3, [sp, #156]	; 0x9c
     b80:	9328      	str	r3, [sp, #160]	; 0xa0
     b82:	9329      	str	r3, [sp, #164]	; 0xa4
     b84:	932a      	str	r3, [sp, #168]	; 0xa8
     b86:	932b      	str	r3, [sp, #172]	; 0xac
     b88:	932c      	str	r3, [sp, #176]	; 0xb0
     b8a:	932d      	str	r3, [sp, #180]	; 0xb4
     b8c:	f7ff fffe 	bl	0 <stft_analyze>
			b8c: R_ARM_THM_CALL	stft_analyze
     b90:	ab1e      	add	r3, sp, #120	; 0x78
     b92:	463a      	mov	r2, r7
     b94:	f8d9 1028 	ldr.w	r1, [r9, #40]	; 0x28
     b98:	f8d9 0018 	ldr.w	r0, [r9, #24]
     b9c:	f8c8 3018 	str.w	r3, [r8, #24]
     ba0:	f7ff fffe 	bl	0 <stft_analyze>
			ba0: R_ARM_THM_CALL	stft_analyze
     ba4:	ab1e      	add	r3, sp, #120	; 0x78
     ba6:	4632      	mov	r2, r6
     ba8:	f8d9 1048 	ldr.w	r1, [r9, #72]	; 0x48
     bac:	f8d9 0038 	ldr.w	r0, [r9, #56]	; 0x38
     bb0:	9602      	str	r6, [sp, #8]
     bb2:	f8ca 3018 	str.w	r3, [sl, #24]
     bb6:	f8cb 3018 	str.w	r3, [fp, #24]
     bba:	f7ff fffe 	bl	0 <stft_analyze>
			bba: R_ARM_THM_CALL	stft_analyze
     bbe:	f8dd c00c 	ldr.w	ip, [sp, #12]
     bc2:	e897 000c 	ldmia.w	r7, {r2, r3}
     bc6:	e894 0003 	ldmia.w	r4, {r0, r1}
     bca:	f8cd c004 	str.w	ip, [sp, #4]
     bce:	f8d9 604c 	ldr.w	r6, [r9, #76]	; 0x4c
     bd2:	9600      	str	r6, [sp, #0]
     bd4:	f7ff fffe 	bl	0 <aec_res_proc_compl>
			bd4: R_ARM_THM_CALL	aec_res_proc_compl
     bd8:	e894 0003 	ldmia.w	r4, {r0, r1}
     bdc:	68fb      	ldr	r3, [r7, #12]
     bde:	68ba      	ldr	r2, [r7, #8]
     be0:	f8cd 8004 	str.w	r8, [sp, #4]
     be4:	f8d9 6050 	ldr.w	r6, [r9, #80]	; 0x50
     be8:	9600      	str	r6, [sp, #0]
     bea:	f7ff fffe 	bl	0 <aec_res_proc_compl>
			bea: R_ARM_THM_CALL	aec_res_proc_compl
     bee:	9902      	ldr	r1, [sp, #8]
     bf0:	684b      	ldr	r3, [r1, #4]
     bf2:	680a      	ldr	r2, [r1, #0]
     bf4:	e894 0003 	ldmia.w	r4, {r0, r1}
     bf8:	f8cd a004 	str.w	sl, [sp, #4]
     bfc:	f8d9 6054 	ldr.w	r6, [r9, #84]	; 0x54
     c00:	9600      	str	r6, [sp, #0]
     c02:	f7ff fffe 	bl	0 <aec_res_proc_compl>
			c02: R_ARM_THM_CALL	aec_res_proc_compl
     c06:	9e02      	ldr	r6, [sp, #8]
     c08:	e894 0003 	ldmia.w	r4, {r0, r1}
     c0c:	f8d9 4058 	ldr.w	r4, [r9, #88]	; 0x58
     c10:	68f3      	ldr	r3, [r6, #12]
     c12:	68b2      	ldr	r2, [r6, #8]
     c14:	e88d 0810 	stmia.w	sp, {r4, fp}
     c18:	f7ff fffe 	bl	0 <aec_res_proc_compl>
			c18: R_ARM_THM_CALL	aec_res_proc_compl
     c1c:	463a      	mov	r2, r7
     c1e:	f8d9 1028 	ldr.w	r1, [r9, #40]	; 0x28
     c22:	f8d9 0018 	ldr.w	r0, [r9, #24]
     c26:	f7ff fffe 	bl	0 <stft_synthes>
			c26: R_ARM_THM_CALL	stft_synthes
     c2a:	4632      	mov	r2, r6
     c2c:	f8d9 1048 	ldr.w	r1, [r9, #72]	; 0x48
     c30:	f8d9 0038 	ldr.w	r0, [r9, #56]	; 0x38
     c34:	f7ff fffe 	bl	0 <stft_synthes>
			c34: R_ARM_THM_CALL	stft_synthes
     c38:	9b10      	ldr	r3, [sp, #64]	; 0x40
     c3a:	2b04      	cmp	r3, #4
     c3c:	f000 8200 	beq.w	1040 <aec_mono_proc+0xaac>
     c40:	2b02      	cmp	r3, #2
     c42:	d004      	beq.n	c4e <aec_mono_proc+0x6ba>
     c44:	b02f      	add	sp, #188	; 0xbc
     c46:	ecbd 8b02 	vpop	{d8}
     c4a:	e8bd 8ff0 	ldmia.w	sp!, {r4, r5, r6, r7, r8, r9, sl, fp, pc}
     c4e:	6bab      	ldr	r3, [r5, #56]	; 0x38
     c50:	f04f 0a00 	mov.w	sl, #0
     c54:	69a8      	ldr	r0, [r5, #24]
     c56:	6aa9      	ldr	r1, [r5, #40]	; 0x28
     c58:	6cac      	ldr	r4, [r5, #72]	; 0x48
     c5a:	461e      	mov	r6, r3
     c5c:	9a11      	ldr	r2, [sp, #68]	; 0x44
     c5e:	4686      	mov	lr, r0
     c60:	eddf 7af4 	vldr	s15, [pc, #976]	; 1034 <aec_mono_proc+0xaa0>
     c64:	460f      	mov	r7, r1
     c66:	4625      	mov	r5, r4
     c68:	9302      	str	r3, [sp, #8]
     c6a:	3240      	adds	r2, #64	; 0x40
     c6c:	9403      	str	r4, [sp, #12]
     c6e:	ed9e 0a00 	vldr	s0, [lr]
     c72:	f10a 0a08 	add.w	sl, sl, #8
     c76:	edd7 0a00 	vldr	s1, [r7]
     c7a:	f1ba 0ff8 	cmp.w	sl, #248	; 0xf8
     c7e:	ed96 1a00 	vldr	s2, [r6]
     c82:	4613      	mov	r3, r2
     c84:	edd5 1a00 	vldr	s3, [r5]
     c88:	f5ca 7480 	rsb	r4, sl, #256	; 0x100
     c8c:	ed9e 2a01 	vldr	s4, [lr, #4]
     c90:	f107 0720 	add.w	r7, r7, #32
     c94:	ed57 2a07 	vldr	s5, [r7, #-28]	; 0xffffffe4
     c98:	f10e 0e20 	add.w	lr, lr, #32
     c9c:	ed96 3a01 	vldr	s6, [r6, #4]
     ca0:	f105 0520 	add.w	r5, r5, #32
     ca4:	ed55 3a07 	vldr	s7, [r5, #-28]	; 0xffffffe4
     ca8:	f106 0620 	add.w	r6, r6, #32
     cac:	ed1e 4a06 	vldr	s8, [lr, #-24]	; 0xffffffe8
     cb0:	ed57 4a06 	vldr	s9, [r7, #-24]	; 0xffffffe8
     cb4:	ed16 5a06 	vldr	s10, [r6, #-24]	; 0xffffffe8
     cb8:	ee20 0a27 	vmul.f32	s0, s0, s15
     cbc:	ee60 0aa7 	vmul.f32	s1, s1, s15
     cc0:	ee21 1a27 	vmul.f32	s2, s2, s15
     cc4:	ed55 5a06 	vldr	s11, [r5, #-24]	; 0xffffffe8
     cc8:	ed1e 6a05 	vldr	s12, [lr, #-20]	; 0xffffffec
     ccc:	ed57 6a05 	vldr	s13, [r7, #-20]	; 0xffffffec
     cd0:	ed16 7a05 	vldr	s14, [r6, #-20]	; 0xffffffec
     cd4:	ee61 1aa7 	vmul.f32	s3, s3, s15
     cd8:	ee22 2a27 	vmul.f32	s4, s4, s15
     cdc:	ee62 2aa7 	vmul.f32	s5, s5, s15
     ce0:	ee23 3a27 	vmul.f32	s6, s6, s15
     ce4:	eebd 0ac0 	vcvt.s32.f32	s0, s0
     ce8:	eefd 0ae0 	vcvt.s32.f32	s1, s1
     cec:	eebd 1ac1 	vcvt.s32.f32	s2, s2
     cf0:	ee63 3aa7 	vmul.f32	s7, s7, s15
     cf4:	ee24 4a27 	vmul.f32	s8, s8, s15
     cf8:	ee64 4aa7 	vmul.f32	s9, s9, s15
     cfc:	ee25 5a27 	vmul.f32	s10, s10, s15
     d00:	eefd 1ae1 	vcvt.s32.f32	s3, s3
     d04:	eebd 2ac2 	vcvt.s32.f32	s4, s4
     d08:	eefd 2ae2 	vcvt.s32.f32	s5, s5
     d0c:	eebd 3ac3 	vcvt.s32.f32	s6, s6
     d10:	ee65 5aa7 	vmul.f32	s11, s11, s15
     d14:	ee26 6a27 	vmul.f32	s12, s12, s15
     d18:	ee66 6aa7 	vmul.f32	s13, s13, s15
     d1c:	ee27 7a27 	vmul.f32	s14, s14, s15
     d20:	ee10 9a10 	vmov	r9, s0
     d24:	ee10 8a90 	vmov	r8, s1
     d28:	ee11 ca10 	vmov	ip, s2
     d2c:	eefd 3ae3 	vcvt.s32.f32	s7, s7
     d30:	eebd 4ac4 	vcvt.s32.f32	s8, s8
     d34:	eefd 4ae4 	vcvt.s32.f32	s9, s9
     d38:	eebd 5ac5 	vcvt.s32.f32	s10, s10
     d3c:	ee11 ba90 	vmov	fp, s3
     d40:	f822 9c40 	strh.w	r9, [r2, #-64]
     d44:	f822 8c3e 	strh.w	r8, [r2, #-62]
     d48:	ee12 9a10 	vmov	r9, s4
     d4c:	ee12 8a90 	vmov	r8, s5
     d50:	f822 cc3c 	strh.w	ip, [r2, #-60]
     d54:	eefd 5ae5 	vcvt.s32.f32	s11, s11
     d58:	ee13 ca10 	vmov	ip, s6
     d5c:	eebd 6ac6 	vcvt.s32.f32	s12, s12
     d60:	eefd 6ae6 	vcvt.s32.f32	s13, s13
     d64:	eebd 7ac7 	vcvt.s32.f32	s14, s14
     d68:	f822 bc3a 	strh.w	fp, [r2, #-58]
     d6c:	f822 9c38 	strh.w	r9, [r2, #-56]
     d70:	ee13 ba90 	vmov	fp, s7
     d74:	ee14 9a10 	vmov	r9, s8
     d78:	f822 8c36 	strh.w	r8, [r2, #-54]
     d7c:	f822 cc34 	strh.w	ip, [r2, #-52]
     d80:	ee14 8a90 	vmov	r8, s9
     d84:	ee15 ca10 	vmov	ip, s10
     d88:	f822 bc32 	strh.w	fp, [r2, #-50]
     d8c:	f822 9c30 	strh.w	r9, [r2, #-48]
     d90:	ee15 ba90 	vmov	fp, s11
     d94:	ee16 9a10 	vmov	r9, s12
     d98:	f822 8c2e 	strh.w	r8, [r2, #-46]
     d9c:	f822 cc2c 	strh.w	ip, [r2, #-44]
     da0:	ee16 8a90 	vmov	r8, s13
     da4:	ee17 ca10 	vmov	ip, s14
     da8:	f822 bc2a 	strh.w	fp, [r2, #-42]
     dac:	f822 9c28 	strh.w	r9, [r2, #-40]
     db0:	f822 8c26 	strh.w	r8, [r2, #-38]
     db4:	f892 f000 	pld	[r2]
     db8:	f892 f020 	pld	[r2, #32]
     dbc:	f892 f002 	pld	[r2, #2]
     dc0:	f892 f022 	pld	[r2, #34]	; 0x22
     dc4:	f102 0240 	add.w	r2, r2, #64	; 0x40
     dc8:	f822 cc64 	strh.w	ip, [r2, #-100]
     dcc:	ed55 8a05 	vldr	s17, [r5, #-20]	; 0xffffffec
     dd0:	ed1e 8a04 	vldr	s16, [lr, #-16]
     dd4:	ed17 0a04 	vldr	s0, [r7, #-16]
     dd8:	ed56 0a04 	vldr	s1, [r6, #-16]
     ddc:	ed15 1a04 	vldr	s2, [r5, #-16]
     de0:	ed5e 1a03 	vldr	s3, [lr, #-12]
     de4:	ed17 2a03 	vldr	s4, [r7, #-12]
     de8:	ed56 2a03 	vldr	s5, [r6, #-12]
     dec:	ed15 3a03 	vldr	s6, [r5, #-12]
     df0:	ee68 8aa7 	vmul.f32	s17, s17, s15
     df4:	ed5e 3a02 	vldr	s7, [lr, #-8]
     df8:	ed17 4a02 	vldr	s8, [r7, #-8]
     dfc:	ed56 4a02 	vldr	s9, [r6, #-8]
     e00:	ed15 5a02 	vldr	s10, [r5, #-8]
     e04:	ee28 8a27 	vmul.f32	s16, s16, s15
     e08:	ee20 0a27 	vmul.f32	s0, s0, s15
     e0c:	ee60 0aa7 	vmul.f32	s1, s1, s15
     e10:	ee21 1a27 	vmul.f32	s2, s2, s15
     e14:	ed5e 5a01 	vldr	s11, [lr, #-4]
     e18:	ed17 6a01 	vldr	s12, [r7, #-4]
     e1c:	ed56 6a01 	vldr	s13, [r6, #-4]
     e20:	ed15 7a01 	vldr	s14, [r5, #-4]
     e24:	ee61 1aa7 	vmul.f32	s3, s3, s15
     e28:	ee22 2a27 	vmul.f32	s4, s4, s15
     e2c:	ee62 2aa7 	vmul.f32	s5, s5, s15
     e30:	ee23 3a27 	vmul.f32	s6, s6, s15
     e34:	eefd 8ae8 	vcvt.s32.f32	s17, s17
     e38:	ee63 3aa7 	vmul.f32	s7, s7, s15
     e3c:	ee24 4a27 	vmul.f32	s8, s8, s15
     e40:	ee64 4aa7 	vmul.f32	s9, s9, s15
     e44:	ee25 5a27 	vmul.f32	s10, s10, s15
     e48:	eebd 8ac8 	vcvt.s32.f32	s16, s16
     e4c:	eebd 0ac0 	vcvt.s32.f32	s0, s0
     e50:	eefd 0ae0 	vcvt.s32.f32	s1, s1
     e54:	eebd 1ac1 	vcvt.s32.f32	s2, s2
     e58:	ee18 ca90 	vmov	ip, s17
     e5c:	ee65 5aa7 	vmul.f32	s11, s11, s15
     e60:	ee26 6a27 	vmul.f32	s12, s12, s15
     e64:	ee66 6aa7 	vmul.f32	s13, s13, s15
     e68:	ee27 7a27 	vmul.f32	s14, s14, s15
     e6c:	eefd 1ae1 	vcvt.s32.f32	s3, s3
     e70:	eebd 2ac2 	vcvt.s32.f32	s4, s4
     e74:	eefd 2ae2 	vcvt.s32.f32	s5, s5
     e78:	eebd 3ac3 	vcvt.s32.f32	s6, s6
     e7c:	f822 cc62 	strh.w	ip, [r2, #-98]
     e80:	ee18 ba10 	vmov	fp, s16
     e84:	ee10 9a10 	vmov	r9, s0
     e88:	ee10 8a90 	vmov	r8, s1
     e8c:	ee11 ca10 	vmov	ip, s2
     e90:	eefd 3ae3 	vcvt.s32.f32	s7, s7
     e94:	eebd 4ac4 	vcvt.s32.f32	s8, s8
     e98:	eefd 4ae4 	vcvt.s32.f32	s9, s9
     e9c:	eebd 5ac5 	vcvt.s32.f32	s10, s10
     ea0:	f822 bc60 	strh.w	fp, [r2, #-96]
     ea4:	f822 9c5e 	strh.w	r9, [r2, #-94]
     ea8:	f822 8c5c 	strh.w	r8, [r2, #-92]
     eac:	f822 cc5a 	strh.w	ip, [r2, #-90]
     eb0:	ee11 ba90 	vmov	fp, s3
     eb4:	ee12 9a10 	vmov	r9, s4
     eb8:	ee12 8a90 	vmov	r8, s5
     ebc:	ee13 ca10 	vmov	ip, s6
     ec0:	eefd 5ae5 	vcvt.s32.f32	s11, s11
     ec4:	eebd 6ac6 	vcvt.s32.f32	s12, s12
     ec8:	eefd 6ae6 	vcvt.s32.f32	s13, s13
     ecc:	eebd 7ac7 	vcvt.s32.f32	s14, s14
     ed0:	f822 bc58 	strh.w	fp, [r2, #-88]
     ed4:	f822 9c56 	strh.w	r9, [r2, #-86]
     ed8:	f822 8c54 	strh.w	r8, [r2, #-84]
     edc:	f822 cc52 	strh.w	ip, [r2, #-82]
     ee0:	ee13 ba90 	vmov	fp, s7
     ee4:	ee14 9a10 	vmov	r9, s8
     ee8:	ee14 8a90 	vmov	r8, s9
     eec:	ee15 ca10 	vmov	ip, s10
     ef0:	f822 bc50 	strh.w	fp, [r2, #-80]
     ef4:	f822 9c4e 	strh.w	r9, [r2, #-78]
     ef8:	f822 8c4c 	strh.w	r8, [r2, #-76]
     efc:	f822 cc4a 	strh.w	ip, [r2, #-74]
     f00:	ee15 ba90 	vmov	fp, s11
     f04:	ee16 9a10 	vmov	r9, s12
     f08:	ee16 8a90 	vmov	r8, s13
     f0c:	ee17 ca10 	vmov	ip, s14
     f10:	f822 bc48 	strh.w	fp, [r2, #-72]
     f14:	f822 9c46 	strh.w	r9, [r2, #-70]
     f18:	f822 8c44 	strh.w	r8, [r2, #-68]
     f1c:	f822 cc42 	strh.w	ip, [r2, #-66]
     f20:	f47f aea5 	bne.w	c6e <aec_mono_proc+0x6da>
     f24:	9a02      	ldr	r2, [sp, #8]
     f26:	3401      	adds	r4, #1
     f28:	eddf 5a42 	vldr	s11, [pc, #264]	; 1034 <aec_mono_proc+0xaa0>
     f2c:	eb03 0cc4 	add.w	ip, r3, r4, lsl #3
     f30:	f500 7078 	add.w	r0, r0, #992	; 0x3e0
     f34:	f502 7e78 	add.w	lr, r2, #992	; 0x3e0
     f38:	9a03      	ldr	r2, [sp, #12]
     f3a:	3308      	adds	r3, #8
     f3c:	f501 7178 	add.w	r1, r1, #992	; 0x3e0
     f40:	f502 7778 	add.w	r7, r2, #992	; 0x3e0
     f44:	ecb0 6a01 	vldmia	r0!, {s12}
     f48:	3308      	adds	r3, #8
     f4a:	ecf1 6a01 	vldmia	r1!, {s13}
     f4e:	ecbe 7a01 	vldmia	lr!, {s14}
     f52:	ecf7 7a01 	vldmia	r7!, {s15}
     f56:	ee26 6a25 	vmul.f32	s12, s12, s11
     f5a:	ee66 6aa5 	vmul.f32	s13, s13, s11
     f5e:	ee27 7a25 	vmul.f32	s14, s14, s11
     f62:	ee67 7aa5 	vmul.f32	s15, s15, s11
     f66:	eebd 6ac6 	vcvt.s32.f32	s12, s12
     f6a:	eefd 6ae6 	vcvt.s32.f32	s13, s13
     f6e:	eebd 7ac7 	vcvt.s32.f32	s14, s14
     f72:	eefd 7ae7 	vcvt.s32.f32	s15, s15
     f76:	ee16 6a10 	vmov	r6, s12
     f7a:	ee16 5a90 	vmov	r5, s13
     f7e:	ee17 4a10 	vmov	r4, s14
     f82:	ee17 2a90 	vmov	r2, s15
     f86:	f823 6c10 	strh.w	r6, [r3, #-16]
     f8a:	f823 5c0e 	strh.w	r5, [r3, #-14]
     f8e:	f823 4c0c 	strh.w	r4, [r3, #-12]
     f92:	f823 2c0a 	strh.w	r2, [r3, #-10]
     f96:	4563      	cmp	r3, ip
     f98:	d1d4      	bne.n	f44 <aec_mono_proc+0x9b0>
     f9a:	b02f      	add	sp, #188	; 0xbc
     f9c:	ecbd 8b02 	vpop	{d8}
     fa0:	e8bd 8ff0 	ldmia.w	sp!, {r4, r5, r6, r7, r8, r9, sl, fp, pc}
     fa4:	ed9f 5a25 	vldr	s10, [pc, #148]	; 103c <aec_mono_proc+0xaa8>
     fa8:	f50a 7400 	add.w	r4, sl, #512	; 0x200
     fac:	9a05      	ldr	r2, [sp, #20]
     fae:	f50a 6080 	add.w	r0, sl, #1024	; 0x400
     fb2:	9b04      	ldr	r3, [sp, #16]
     fb4:	f50a 61c0 	add.w	r1, sl, #1536	; 0x600
     fb8:	f505 6780 	add.w	r7, r5, #1024	; 0x400
     fbc:	f93a eb02 	ldrsh.w	lr, [sl], #2
     fc0:	ee05 ea90 	vmov	s11, lr
     fc4:	f934 eb02 	ldrsh.w	lr, [r4], #2
     fc8:	eef8 5ae5 	vcvt.f32.s32	s11, s11
     fcc:	ee06 ea10 	vmov	s12, lr
     fd0:	f930 eb02 	ldrsh.w	lr, [r0], #2
     fd4:	eeb8 6ac6 	vcvt.f32.s32	s12, s12
     fd8:	ee65 5a85 	vmul.f32	s11, s11, s10
     fdc:	ee06 ea90 	vmov	s13, lr
     fe0:	f931 eb02 	ldrsh.w	lr, [r1], #2
     fe4:	eef8 6ae6 	vcvt.f32.s32	s13, s13
     fe8:	ee26 6a05 	vmul.f32	s12, s12, s10
     fec:	ee07 ea10 	vmov	s14, lr
     ff0:	f938 eb02 	ldrsh.w	lr, [r8], #2
     ff4:	eeb8 7ac7 	vcvt.f32.s32	s14, s14
     ff8:	ee66 6a85 	vmul.f32	s13, s13, s10
     ffc:	ece2 5a01 	vstmia	r2!, {s11}
    1000:	ee07 ea90 	vmov	s15, lr
    1004:	ee27 7a05 	vmul.f32	s14, s14, s10
    1008:	eef8 7ae7 	vcvt.f32.s32	s15, s15
    100c:	ecab 6a01 	vstmia	fp!, {s12}
    1010:	ece6 6a01 	vstmia	r6!, {s13}
    1014:	eca5 7a01 	vstmia	r5!, {s14}
    1018:	42bd      	cmp	r5, r7
    101a:	ee67 7a85 	vmul.f32	s15, s15, s10
    101e:	ece3 7a01 	vstmia	r3!, {s15}
    1022:	d1cb      	bne.n	fbc <aec_mono_proc+0xa28>
    1024:	f7ff bae6 	b.w	5f4 <aec_mono_proc+0x60>
    1028:	f7ff fffe 	bl	0 <aec_mono_init>
			1028: R_ARM_THM_CALL	aec_mono_init
    102c:	2800      	cmp	r0, #0
    102e:	f47f aace 	bne.w	5ce <aec_mono_proc+0x3a>
    1032:	e607      	b.n	c44 <aec_mono_proc+0x6b0>
    1034:	46fffe00 	.word	0x46fffe00
    1038:	4f000000 	.word	0x4f000000
    103c:	38000100 	.word	0x38000100
    1040:	69af      	ldr	r7, [r5, #24]
    1042:	f04f 0800 	mov.w	r8, #0
    1046:	6aac      	ldr	r4, [r5, #40]	; 0x28
    1048:	6ba8      	ldr	r0, [r5, #56]	; 0x38
    104a:	9a11      	ldr	r2, [sp, #68]	; 0x44
    104c:	46bc      	mov	ip, r7
    104e:	6ca9      	ldr	r1, [r5, #72]	; 0x48
    1050:	46a6      	mov	lr, r4
    1052:	ed5f 7a07 	vldr	s15, [pc, #-28]	; 1038 <aec_mono_proc+0xaa4>
    1056:	4606      	mov	r6, r0
    1058:	3280      	adds	r2, #128	; 0x80
    105a:	460d      	mov	r5, r1
    105c:	ed9c 0a00 	vldr	s0, [ip]
    1060:	f108 0808 	add.w	r8, r8, #8
    1064:	edde 0a00 	vldr	s1, [lr]
    1068:	f1b8 0ff8 	cmp.w	r8, #248	; 0xf8
    106c:	ed96 1a00 	vldr	s2, [r6]
    1070:	4613      	mov	r3, r2
    1072:	edd5 1a00 	vldr	s3, [r5]
    1076:	f5c8 7980 	rsb	r9, r8, #256	; 0x100
    107a:	ed9c 2a01 	vldr	s4, [ip, #4]
    107e:	f10e 0e20 	add.w	lr, lr, #32
    1082:	ed5e 2a07 	vldr	s5, [lr, #-28]	; 0xffffffe4
    1086:	f10c 0c20 	add.w	ip, ip, #32
    108a:	ed96 3a01 	vldr	s6, [r6, #4]
    108e:	f105 0520 	add.w	r5, r5, #32
    1092:	ed55 3a07 	vldr	s7, [r5, #-28]	; 0xffffffe4
    1096:	f106 0620 	add.w	r6, r6, #32
    109a:	ed1c 4a06 	vldr	s8, [ip, #-24]	; 0xffffffe8
    109e:	ed5e 4a06 	vldr	s9, [lr, #-24]	; 0xffffffe8
    10a2:	ed16 5a06 	vldr	s10, [r6, #-24]	; 0xffffffe8
    10a6:	ed55 5a06 	vldr	s11, [r5, #-24]	; 0xffffffe8
    10aa:	ed1c 6a05 	vldr	s12, [ip, #-20]	; 0xffffffec
    10ae:	ed5e 6a05 	vldr	s13, [lr, #-20]	; 0xffffffec
    10b2:	ed16 7a05 	vldr	s14, [r6, #-20]	; 0xffffffec
    10b6:	ee20 0a27 	vmul.f32	s0, s0, s15
    10ba:	ee60 0aa7 	vmul.f32	s1, s1, s15
    10be:	ee21 1a27 	vmul.f32	s2, s2, s15
    10c2:	ee61 1aa7 	vmul.f32	s3, s3, s15
    10c6:	ee22 2a27 	vmul.f32	s4, s4, s15
    10ca:	ee62 2aa7 	vmul.f32	s5, s5, s15
    10ce:	ee23 3a27 	vmul.f32	s6, s6, s15
    10d2:	ee63 3aa7 	vmul.f32	s7, s7, s15
    10d6:	ee24 4a27 	vmul.f32	s8, s8, s15
    10da:	ee64 4aa7 	vmul.f32	s9, s9, s15
    10de:	ee25 5a27 	vmul.f32	s10, s10, s15
    10e2:	ee65 5aa7 	vmul.f32	s11, s11, s15
    10e6:	ee26 6a27 	vmul.f32	s12, s12, s15
    10ea:	ee66 6aa7 	vmul.f32	s13, s13, s15
    10ee:	ee27 7a27 	vmul.f32	s14, s14, s15
    10f2:	eebd 0ac0 	vcvt.s32.f32	s0, s0
    10f6:	eefd 0ae0 	vcvt.s32.f32	s1, s1
    10fa:	eebd 1ac1 	vcvt.s32.f32	s2, s2
    10fe:	eefd 1ae1 	vcvt.s32.f32	s3, s3
    1102:	eebd 2ac2 	vcvt.s32.f32	s4, s4
    1106:	eefd 2ae2 	vcvt.s32.f32	s5, s5
    110a:	eebd 3ac3 	vcvt.s32.f32	s6, s6
    110e:	eefd 3ae3 	vcvt.s32.f32	s7, s7
    1112:	eebd 4ac4 	vcvt.s32.f32	s8, s8
    1116:	eefd 4ae4 	vcvt.s32.f32	s9, s9
    111a:	eebd 5ac5 	vcvt.s32.f32	s10, s10
    111e:	eefd 5ae5 	vcvt.s32.f32	s11, s11
    1122:	eebd 6ac6 	vcvt.s32.f32	s12, s12
    1126:	eefd 6ae6 	vcvt.s32.f32	s13, s13
    112a:	eebd 7ac7 	vcvt.s32.f32	s14, s14
    112e:	ed02 0a20 	vstr	s0, [r2, #-128]	; 0xffffff80
    1132:	ed42 0a1f 	vstr	s1, [r2, #-124]	; 0xffffff84
    1136:	ed02 1a1e 	vstr	s2, [r2, #-120]	; 0xffffff88
    113a:	ed42 1a1d 	vstr	s3, [r2, #-116]	; 0xffffff8c
    113e:	ed02 2a1c 	vstr	s4, [r2, #-112]	; 0xffffff90
    1142:	ed42 2a1b 	vstr	s5, [r2, #-108]	; 0xffffff94
    1146:	ed02 3a1a 	vstr	s6, [r2, #-104]	; 0xffffff98
    114a:	ed42 3a19 	vstr	s7, [r2, #-100]	; 0xffffff9c
    114e:	ed02 4a18 	vstr	s8, [r2, #-96]	; 0xffffffa0
    1152:	ed42 4a17 	vstr	s9, [r2, #-92]	; 0xffffffa4
    1156:	ed02 5a16 	vstr	s10, [r2, #-88]	; 0xffffffa8
    115a:	ed42 5a15 	vstr	s11, [r2, #-84]	; 0xffffffac
    115e:	ed02 6a14 	vstr	s12, [r2, #-80]	; 0xffffffb0
    1162:	ed42 6a13 	vstr	s13, [r2, #-76]	; 0xffffffb4
    1166:	f892 f000 	pld	[r2]
    116a:	f892 f020 	pld	[r2, #32]
    116e:	f892 f040 	pld	[r2, #64]	; 0x40
    1172:	f892 f060 	pld	[r2, #96]	; 0x60
    1176:	f102 0280 	add.w	r2, r2, #128	; 0x80
    117a:	ed02 7a32 	vstr	s14, [r2, #-200]	; 0xffffff38
    117e:	ed55 8a05 	vldr	s17, [r5, #-20]	; 0xffffffec
    1182:	ed1c 8a04 	vldr	s16, [ip, #-16]
    1186:	ed1e 0a04 	vldr	s0, [lr, #-16]
    118a:	ed56 0a04 	vldr	s1, [r6, #-16]
    118e:	ed15 1a04 	vldr	s2, [r5, #-16]
    1192:	ed5c 1a03 	vldr	s3, [ip, #-12]
    1196:	ed1e 2a03 	vldr	s4, [lr, #-12]
    119a:	ed56 2a03 	vldr	s5, [r6, #-12]
    119e:	ed15 3a03 	vldr	s6, [r5, #-12]
    11a2:	ed5c 3a02 	vldr	s7, [ip, #-8]
    11a6:	ed1e 4a02 	vldr	s8, [lr, #-8]
    11aa:	ed56 4a02 	vldr	s9, [r6, #-8]
    11ae:	ed15 5a02 	vldr	s10, [r5, #-8]
    11b2:	ed5c 5a01 	vldr	s11, [ip, #-4]
    11b6:	ed1e 6a01 	vldr	s12, [lr, #-4]
    11ba:	ed56 6a01 	vldr	s13, [r6, #-4]
    11be:	ed15 7a01 	vldr	s14, [r5, #-4]
    11c2:	ee68 8aa7 	vmul.f32	s17, s17, s15
    11c6:	ee28 8a27 	vmul.f32	s16, s16, s15
    11ca:	ee20 0a27 	vmul.f32	s0, s0, s15
    11ce:	ee60 0aa7 	vmul.f32	s1, s1, s15
    11d2:	ee21 1a27 	vmul.f32	s2, s2, s15
    11d6:	ee61 1aa7 	vmul.f32	s3, s3, s15
    11da:	ee22 2a27 	vmul.f32	s4, s4, s15
    11de:	ee62 2aa7 	vmul.f32	s5, s5, s15
    11e2:	ee23 3a27 	vmul.f32	s6, s6, s15
    11e6:	ee63 3aa7 	vmul.f32	s7, s7, s15
    11ea:	ee24 4a27 	vmul.f32	s8, s8, s15
    11ee:	ee64 4aa7 	vmul.f32	s9, s9, s15
    11f2:	ee25 5a27 	vmul.f32	s10, s10, s15
    11f6:	ee65 5aa7 	vmul.f32	s11, s11, s15
    11fa:	ee26 6a27 	vmul.f32	s12, s12, s15
    11fe:	ee66 6aa7 	vmul.f32	s13, s13, s15
    1202:	ee27 7a27 	vmul.f32	s14, s14, s15
    1206:	eefd 8ae8 	vcvt.s32.f32	s17, s17
    120a:	eebd 8ac8 	vcvt.s32.f32	s16, s16
    120e:	eebd 0ac0 	vcvt.s32.f32	s0, s0
    1212:	eefd 0ae0 	vcvt.s32.f32	s1, s1
    1216:	eebd 1ac1 	vcvt.s32.f32	s2, s2
    121a:	eefd 1ae1 	vcvt.s32.f32	s3, s3
    121e:	eebd 2ac2 	vcvt.s32.f32	s4, s4
    1222:	eefd 2ae2 	vcvt.s32.f32	s5, s5
    1226:	eebd 3ac3 	vcvt.s32.f32	s6, s6
    122a:	eefd 3ae3 	vcvt.s32.f32	s7, s7
    122e:	eebd 4ac4 	vcvt.s32.f32	s8, s8
    1232:	eefd 4ae4 	vcvt.s32.f32	s9, s9
    1236:	eebd 5ac5 	vcvt.s32.f32	s10, s10
    123a:	eefd 5ae5 	vcvt.s32.f32	s11, s11
    123e:	eebd 6ac6 	vcvt.s32.f32	s12, s12
    1242:	eefd 6ae6 	vcvt.s32.f32	s13, s13
    1246:	eebd 7ac7 	vcvt.s32.f32	s14, s14
    124a:	ed42 8a31 	vstr	s17, [r2, #-196]	; 0xffffff3c
    124e:	ed02 8a30 	vstr	s16, [r2, #-192]	; 0xffffff40
    1252:	ed02 0a2f 	vstr	s0, [r2, #-188]	; 0xffffff44
    1256:	ed42 0a2e 	vstr	s1, [r2, #-184]	; 0xffffff48
    125a:	ed02 1a2d 	vstr	s2, [r2, #-180]	; 0xffffff4c
    125e:	ed42 1a2c 	vstr	s3, [r2, #-176]	; 0xffffff50
    1262:	ed02 2a2b 	vstr	s4, [r2, #-172]	; 0xffffff54
    1266:	ed42 2a2a 	vstr	s5, [r2, #-168]	; 0xffffff58
    126a:	ed02 3a29 	vstr	s6, [r2, #-164]	; 0xffffff5c
    126e:	ed42 3a28 	vstr	s7, [r2, #-160]	; 0xffffff60
    1272:	ed02 4a27 	vstr	s8, [r2, #-156]	; 0xffffff64
    1276:	ed42 4a26 	vstr	s9, [r2, #-152]	; 0xffffff68
    127a:	ed02 5a25 	vstr	s10, [r2, #-148]	; 0xffffff6c
    127e:	ed42 5a24 	vstr	s11, [r2, #-144]	; 0xffffff70
    1282:	ed02 6a23 	vstr	s12, [r2, #-140]	; 0xffffff74
    1286:	ed42 6a22 	vstr	s13, [r2, #-136]	; 0xffffff78
    128a:	ed02 7a21 	vstr	s14, [r2, #-132]	; 0xffffff7c
    128e:	f47f aee5 	bne.w	105c <aec_mono_proc+0xac8>
    1292:	ed5f 5a97 	vldr	s11, [pc, #-604]	; 1038 <aec_mono_proc+0xaa4>
    1296:	f109 0601 	add.w	r6, r9, #1
    129a:	eb03 1606 	add.w	r6, r3, r6, lsl #4
    129e:	f507 7578 	add.w	r5, r7, #992	; 0x3e0
    12a2:	3310      	adds	r3, #16
    12a4:	f504 7478 	add.w	r4, r4, #992	; 0x3e0
    12a8:	f500 7078 	add.w	r0, r0, #992	; 0x3e0
    12ac:	f501 7278 	add.w	r2, r1, #992	; 0x3e0
    12b0:	ecb5 6a01 	vldmia	r5!, {s12}
    12b4:	3310      	adds	r3, #16
    12b6:	ecf4 6a01 	vldmia	r4!, {s13}
    12ba:	ecb0 7a01 	vldmia	r0!, {s14}
    12be:	ecf2 7a01 	vldmia	r2!, {s15}
    12c2:	ee26 6a25 	vmul.f32	s12, s12, s11
    12c6:	ee66 6aa5 	vmul.f32	s13, s13, s11
    12ca:	ee27 7a25 	vmul.f32	s14, s14, s11
    12ce:	ee67 7aa5 	vmul.f32	s15, s15, s11
    12d2:	eebd 6ac6 	vcvt.s32.f32	s12, s12
    12d6:	eefd 6ae6 	vcvt.s32.f32	s13, s13
    12da:	eebd 7ac7 	vcvt.s32.f32	s14, s14
    12de:	eefd 7ae7 	vcvt.s32.f32	s15, s15
    12e2:	ed03 6a08 	vstr	s12, [r3, #-32]	; 0xffffffe0
    12e6:	ed43 6a07 	vstr	s13, [r3, #-28]	; 0xffffffe4
    12ea:	ed03 7a06 	vstr	s14, [r3, #-24]	; 0xffffffe8
    12ee:	ed43 7a05 	vstr	s15, [r3, #-20]	; 0xffffffec
    12f2:	42b3      	cmp	r3, r6
    12f4:	d1dc      	bne.n	12b0 <aec_mono_proc+0xd1c>
    12f6:	b02f      	add	sp, #188	; 0xbc
    12f8:	ecbd 8b02 	vpop	{d8}
    12fc:	e8bd 8ff0 	ldmia.w	sp!, {r4, r5, r6, r7, r8, r9, sl, fp, pc}
    1300:	9f04      	ldr	r7, [sp, #16]
    1302:	f50a 6300 	add.w	r3, sl, #2048	; 0x800
    1306:	ed1f 5ab3 	vldr	s10, [pc, #-716]	; 103c <aec_mono_proc+0xaa8>
    130a:	f50a 6c40 	add.w	ip, sl, #3072	; 0xc00
    130e:	f8dd e014 	ldr.w	lr, [sp, #20]
    1312:	f50a 6280 	add.w	r2, sl, #1024	; 0x400
    1316:	f8cd 9018 	str.w	r9, [sp, #24]
    131a:	4699      	mov	r9, r3
    131c:	f507 6180 	add.w	r1, r7, #1024	; 0x400
    1320:	9202      	str	r2, [sp, #8]
    1322:	9103      	str	r1, [sp, #12]
    1324:	f85a 2b04 	ldr.w	r2, [sl], #4
    1328:	9b02      	ldr	r3, [sp, #8]
    132a:	f859 0b04 	ldr.w	r0, [r9], #4
    132e:	f85c 1b04 	ldr.w	r1, [ip], #4
    1332:	f853 4b04 	ldr.w	r4, [r3], #4
    1336:	1412      	asrs	r2, r2, #16
    1338:	ee05 2a90 	vmov	s11, r2
    133c:	1422      	asrs	r2, r4, #16
    133e:	9302      	str	r3, [sp, #8]
    1340:	f858 3b04 	ldr.w	r3, [r8], #4
    1344:	eef8 5ae5 	vcvt.f32.s32	s11, s11
    1348:	ee06 2a10 	vmov	s12, r2
    134c:	1402      	asrs	r2, r0, #16
    134e:	eeb8 6ac6 	vcvt.f32.s32	s12, s12
    1352:	ee06 2a90 	vmov	s13, r2
    1356:	140a      	asrs	r2, r1, #16
    1358:	ee65 5a85 	vmul.f32	s11, s11, s10
    135c:	eef8 6ae6 	vcvt.f32.s32	s13, s13
    1360:	ee07 2a10 	vmov	s14, r2
    1364:	141a      	asrs	r2, r3, #16
    1366:	ee26 6a05 	vmul.f32	s12, s12, s10
    136a:	eeb8 7ac7 	vcvt.f32.s32	s14, s14
    136e:	ee07 2a90 	vmov	s15, r2
    1372:	ee66 6a85 	vmul.f32	s13, s13, s10
    1376:	eef8 7ae7 	vcvt.f32.s32	s15, s15
    137a:	ee27 7a05 	vmul.f32	s14, s14, s10
    137e:	9a03      	ldr	r2, [sp, #12]
    1380:	ecee 5a01 	vstmia	lr!, {s11}
    1384:	ee67 7a85 	vmul.f32	s15, s15, s10
    1388:	ecab 6a01 	vstmia	fp!, {s12}
    138c:	ece6 6a01 	vstmia	r6!, {s13}
    1390:	eca5 7a01 	vstmia	r5!, {s14}
    1394:	ece7 7a01 	vstmia	r7!, {s15}
    1398:	4297      	cmp	r7, r2
    139a:	d1c3      	bne.n	1324 <aec_mono_proc+0xd90>
    139c:	f8dd 9018 	ldr.w	r9, [sp, #24]
    13a0:	f7ff b928 	b.w	5f4 <aec_mono_proc+0x60>

aec_notch.o:     file format elf32-littlearm
rw-rw-r-- 1016/1016   1988 Dec 10 16:27 2015 aec_notch.o
architecture: arm, flags 0x00000011:
HAS_RELOC, HAS_SYMS
start address 0x00000000
private flags = 5000000: [Version5 EABI]

Sections:
Idx Name          Size      VMA       LMA       File off  Algn
  0 .text         000001dc  00000000  00000000  00000034  2**2
                  CONTENTS, ALLOC, LOAD, RELOC, READONLY, CODE
  1 .data         00000000  00000000  00000000  00000210  2**0
                  CONTENTS, ALLOC, LOAD, DATA
  2 .bss          00000000  00000000  00000000  00000210  2**0
                  ALLOC
  3 .rodata       000000c0  00000000  00000000  00000210  2**2
                  CONTENTS, ALLOC, LOAD, READONLY, DATA
  4 .comment      00000037  00000000  00000000  000002d0  2**0
                  CONTENTS, READONLY
  5 .note.GNU-stack 00000000  00000000  00000000  00000307  2**0
                  CONTENTS, READONLY
  6 .ARM.attributes 00000035  00000000  00000000  00000307  2**0
                  CONTENTS, READONLY
SYMBOL TABLE:
00000000 l    df *ABS*	00000000 aec_notch.c
00000000 l    d  .text	00000000 .text
00000000 l    d  .data	00000000 .data
00000000 l    d  .bss	00000000 .bss
00000000 l       .rodata	00000000 .LANCHOR0
00000000 l    d  .rodata	00000000 .rodata
00000000 l    d  .note.GNU-stack	00000000 .note.GNU-stack
00000000 l    d  .comment	00000000 .comment
00000000 l    d  .ARM.attributes	00000000 .ARM.attributes
00000000 g     F .text	00000010 aec_notch_init
00000000         *UND*	00000000 aec_calloc
00000010 g     F .text	00000006 aec_notch_destroy
00000000         *UND*	00000000 aec_free
00000018 g     F .text	0000000c aec_notch_reset
00000000         *UND*	00000000 memset
00000024 g     F .text	00000154 aec_notch
00000178 g     F .text	00000062 one_notch
00000000 g     O .rodata	00000080 radius_table
00000080 g     O .rodata	00000040 freq_cos_table



Disassembly of section .text:

00000000 <aec_notch_init>:
   0:	b510      	push	{r4, lr}
   2:	2104      	movs	r1, #4
   4:	4604      	mov	r4, r0
   6:	2080      	movs	r0, #128	; 0x80
   8:	f7ff fffe 	bl	0 <aec_calloc>
			8: R_ARM_THM_CALL	aec_calloc
   c:	6020      	str	r0, [r4, #0]
   e:	bd10      	pop	{r4, pc}

00000010 <aec_notch_destroy>:
  10:	6800      	ldr	r0, [r0, #0]
  12:	f7ff bffe 	b.w	0 <aec_free>
			12: R_ARM_THM_JUMP24	aec_free
  16:	bf00      	nop

00000018 <aec_notch_reset>:
  18:	6800      	ldr	r0, [r0, #0]
  1a:	f44f 7200 	mov.w	r2, #512	; 0x200
  1e:	2100      	movs	r1, #0
  20:	f7ff bffe 	b.w	0 <memset>
			20: R_ARM_THM_JUMP24	memset

00000024 <aec_notch>:
  24:	2900      	cmp	r1, #0
  26:	b4f0      	push	{r4, r5, r6, r7}
  28:	6813      	ldr	r3, [r2, #0]
  2a:	ea4f 0481 	mov.w	r4, r1, lsl #2
  2e:	dd27      	ble.n	80 <aec_notch+0x5c>
  30:	eddf 3a4e 	vldr	s7, [pc, #312]	; 16c <aec_notch+0x148>
  34:	4602      	mov	r2, r0
  36:	ed9f 4a4e 	vldr	s8, [pc, #312]	; 170 <aec_notch+0x14c>
  3a:	1905      	adds	r5, r0, r4
  3c:	eddf 4a4d 	vldr	s9, [pc, #308]	; 174 <aec_notch+0x150>
  40:	ed93 6a01 	vldr	s12, [r3, #4]
  44:	edd3 6a02 	vldr	s13, [r3, #8]
  48:	ed92 7a00 	vldr	s14, [r2]
  4c:	ed93 5a00 	vldr	s10, [r3]
  50:	edd3 5a03 	vldr	s11, [r3, #12]
  54:	ee76 7a66 	vsub.f32	s15, s12, s13
  58:	ed83 7a01 	vstr	s14, [r3, #4]
  5c:	ee37 7a05 	vadd.f32	s14, s14, s10
  60:	ed83 6a00 	vstr	s12, [r3]
  64:	ee67 7a84 	vmul.f32	s15, s15, s8
  68:	edc3 6a03 	vstr	s13, [r3, #12]
  6c:	ee57 7a23 	vnmls.f32	s15, s14, s7
  70:	ee45 7ae4 	vmls.f32	s15, s11, s9
  74:	edc3 7a02 	vstr	s15, [r3, #8]
  78:	ece2 7a01 	vstmia	r2!, {s15}
  7c:	42aa      	cmp	r2, r5
  7e:	d1df      	bne.n	40 <aec_notch+0x1c>
  80:	f240 0600 	movw	r6, #0
			80: R_ARM_THM_MOVW_ABS_NC	.LANCHOR0
  84:	eef7 2a00 	vmov.f32	s5, #112	; 0x70
  88:	f2c0 0600 	movt	r6, #0
			88: R_ARM_THM_MOVT_ABS	.LANCHOR0
  8c:	3320      	adds	r3, #32
  8e:	4404      	add	r4, r0
  90:	f106 0780 	add.w	r7, r6, #128	; 0x80
  94:	2500      	movs	r5, #0
  96:	eeb6 3a00 	vmov.f32	s6, #96	; 0x60
  9a:	2d0f      	cmp	r5, #15
  9c:	edd6 3a00 	vldr	s7, [r6]
  a0:	dc36      	bgt.n	110 <aec_notch+0xec>
  a2:	ee73 4aa2 	vadd.f32	s9, s7, s5
  a6:	2900      	cmp	r1, #0
  a8:	ed97 4a00 	vldr	s8, [r7]
  ac:	ee64 4a83 	vmul.f32	s9, s9, s6
  b0:	ee74 7aa4 	vadd.f32	s15, s9, s9
  b4:	ee27 4a84 	vmul.f32	s8, s15, s8
  b8:	dd20      	ble.n	fc <aec_notch+0xd8>
  ba:	4602      	mov	r2, r0
  bc:	ed13 6a03 	vldr	s12, [r3, #-12]
  c0:	ed53 6a02 	vldr	s13, [r3, #-8]
  c4:	ed92 7a00 	vldr	s14, [r2]
  c8:	ed13 5a04 	vldr	s10, [r3, #-16]
  cc:	ed53 5a01 	vldr	s11, [r3, #-4]
  d0:	ee76 7a66 	vsub.f32	s15, s12, s13
  d4:	ed03 7a03 	vstr	s14, [r3, #-12]
  d8:	ee37 7a05 	vadd.f32	s14, s14, s10
  dc:	ed03 6a04 	vstr	s12, [r3, #-16]
  e0:	ee64 7a27 	vmul.f32	s15, s8, s15
  e4:	ed43 6a01 	vstr	s13, [r3, #-4]
  e8:	ee54 7a87 	vnmls.f32	s15, s9, s14
  ec:	ee43 7ae5 	vmls.f32	s15, s7, s11
  f0:	ed43 7a02 	vstr	s15, [r3, #-8]
  f4:	ece2 7a01 	vstmia	r2!, {s15}
  f8:	42a2      	cmp	r2, r4
  fa:	d1df      	bne.n	bc <aec_notch+0x98>
  fc:	3501      	adds	r5, #1
  fe:	3310      	adds	r3, #16
 100:	2d1f      	cmp	r5, #31
 102:	f106 0604 	add.w	r6, r6, #4
 106:	f107 0704 	add.w	r7, r7, #4
 10a:	d1c6      	bne.n	9a <aec_notch+0x76>
 10c:	bcf0      	pop	{r4, r5, r6, r7}
 10e:	4770      	bx	lr
 110:	ee73 4aa2 	vadd.f32	s9, s7, s5
 114:	2900      	cmp	r1, #0
 116:	ed57 7a10 	vldr	s15, [r7, #-64]	; 0xffffffc0
 11a:	ee64 4a83 	vmul.f32	s9, s9, s6
 11e:	ee34 4aa4 	vadd.f32	s8, s9, s9
 122:	ee27 4ac4 	vnmul.f32	s8, s15, s8
 126:	dde9      	ble.n	fc <aec_notch+0xd8>
 128:	4602      	mov	r2, r0
 12a:	ed13 6a03 	vldr	s12, [r3, #-12]
 12e:	ed53 6a02 	vldr	s13, [r3, #-8]
 132:	ed92 7a00 	vldr	s14, [r2]
 136:	ed13 5a04 	vldr	s10, [r3, #-16]
 13a:	ed53 5a01 	vldr	s11, [r3, #-4]
 13e:	ee76 7a66 	vsub.f32	s15, s12, s13
 142:	ed03 7a03 	vstr	s14, [r3, #-12]
 146:	ee37 7a05 	vadd.f32	s14, s14, s10
 14a:	ed03 6a04 	vstr	s12, [r3, #-16]
 14e:	ee64 7a27 	vmul.f32	s15, s8, s15
 152:	ed43 6a01 	vstr	s13, [r3, #-4]
 156:	ee54 7a87 	vnmls.f32	s15, s9, s14
 15a:	ee43 7ae5 	vmls.f32	s15, s7, s11
 15e:	ed43 7a02 	vstr	s15, [r3, #-8]
 162:	ece2 7a01 	vstmia	r2!, {s15}
 166:	42a2      	cmp	r2, r4
 168:	d1df      	bne.n	12a <aec_notch+0x106>
 16a:	e7c7      	b.n	fc <aec_notch+0xd8>
 16c:	3f79999a 	.word	0x3f79999a
 170:	3ff9999a 	.word	0x3ff9999a
 174:	3f733333 	.word	0x3f733333

00000178 <one_notch>:
 178:	eef7 4a00 	vmov.f32	s9, #112	; 0x70
 17c:	2900      	cmp	r1, #0
 17e:	ee70 7a24 	vadd.f32	s15, s0, s9
 182:	eef6 4a00 	vmov.f32	s9, #96	; 0x60
 186:	ee67 4aa4 	vmul.f32	s9, s15, s9
 18a:	ee74 7aa4 	vadd.f32	s15, s9, s9
 18e:	ee67 0aa0 	vmul.f32	s1, s15, s1
 192:	dd21      	ble.n	1d8 <one_notch+0x60>
 194:	eb00 0181 	add.w	r1, r0, r1, lsl #2
 198:	ed92 6a01 	vldr	s12, [r2, #4]
 19c:	edd2 6a02 	vldr	s13, [r2, #8]
 1a0:	ed90 7a00 	vldr	s14, [r0]
 1a4:	ed92 5a00 	vldr	s10, [r2]
 1a8:	edd2 5a03 	vldr	s11, [r2, #12]
 1ac:	ee76 7a66 	vsub.f32	s15, s12, s13
 1b0:	ed82 7a01 	vstr	s14, [r2, #4]
 1b4:	ee37 7a05 	vadd.f32	s14, s14, s10
 1b8:	ed82 6a00 	vstr	s12, [r2]
 1bc:	ee67 7aa0 	vmul.f32	s15, s15, s1
 1c0:	edc2 6a03 	vstr	s13, [r2, #12]
 1c4:	ee57 7a24 	vnmls.f32	s15, s14, s9
 1c8:	ee40 7a65 	vmls.f32	s15, s0, s11
 1cc:	edc2 7a02 	vstr	s15, [r2, #8]
 1d0:	ece0 7a01 	vstmia	r0!, {s15}
 1d4:	4288      	cmp	r0, r1
 1d6:	d1df      	bne.n	198 <one_notch+0x20>
 1d8:	4770      	bx	lr
 1da:	bf00      	nop

aec_res.o:     file format elf32-littlearm
rw-rw-r-- 1016/1016   4576 Dec 10 16:27 2015 aec_res.o
architecture: arm, flags 0x00000011:
HAS_RELOC, HAS_SYMS
start address 0x00000000
private flags = 5000000: [Version5 EABI]

Sections:
Idx Name          Size      VMA       LMA       File off  Algn
  0 .text         00000acc  00000000  00000000  00000034  2**2
                  CONTENTS, ALLOC, LOAD, RELOC, READONLY, CODE
  1 .data         00000000  00000000  00000000  00000b00  2**0
                  CONTENTS, ALLOC, LOAD, DATA
  2 .bss          00000000  00000000  00000000  00000b00  2**0
                  ALLOC
  3 .comment      00000037  00000000  00000000  00000b00  2**0
                  CONTENTS, READONLY
  4 .note.GNU-stack 00000000  00000000  00000000  00000b37  2**0
                  CONTENTS, READONLY
  5 .ARM.attributes 00000035  00000000  00000000  00000b37  2**0
                  CONTENTS, READONLY
SYMBOL TABLE:
00000000 l    df *ABS*	00000000 aec_res.c
00000000 l    d  .text	00000000 .text
00000000 l    d  .data	00000000 .data
00000000 l    d  .bss	00000000 .bss
00000000 l    d  .note.GNU-stack	00000000 .note.GNU-stack
00000000 l    d  .comment	00000000 .comment
00000000 l    d  .ARM.attributes	00000000 .ARM.attributes
00000000 g     F .text	000000f4 aec_res_init
00000000         *UND*	00000000 aec_calloc
00000000         *UND*	00000000 initPostFilter
00000000         *UND*	00000000 memset
000000f4 g     F .text	000000a2 aec_res_reset
00000198 g     F .text	00000034 aec_res_destroy
00000000         *UND*	00000000 aec_free
00000000         *UND*	00000000 destroyPostFilter
000001cc g     F .text	000004ba aec_res_proc_compl
00000000         *UND*	00000000 aec_flog
00000000         *UND*	00000000 aec_fexp
00000000         *UND*	00000000 aec_fpow
00000000         *UND*	00000000 pf_initScratch
00000000         *UND*	00000000 pf_getSigModule
00000000         *UND*	00000000 pf_setLambda
00000000         *UND*	00000000 pf_getSpectralGain
00000688 g     F .text	00000096 postFiltrationCompl
00000720 g     F .text	000001e8 getDecayFreqPwr
00000908 g     F .text	000000ee getImpRespDecay
000009f8 g     F .text	000000d4 getInitialPowerPerFreq



Disassembly of section .text:

00000000 <aec_res_init>:
   0:	b5f8      	push	{r3, r4, r5, r6, r7, lr}
   2:	2104      	movs	r1, #4
   4:	4605      	mov	r5, r0
   6:	f44f 7000 	mov.w	r0, #512	; 0x200
   a:	2700      	movs	r7, #0
   c:	f7ff fffe 	bl	0 <aec_calloc>
			c: R_ARM_THM_CALL	aec_calloc
  10:	2104      	movs	r1, #4
  12:	6028      	str	r0, [r5, #0]
  14:	f44f 7000 	mov.w	r0, #512	; 0x200
  18:	f7ff fffe 	bl	0 <aec_calloc>
			18: R_ARM_THM_CALL	aec_calloc
  1c:	2104      	movs	r1, #4
  1e:	6068      	str	r0, [r5, #4]
  20:	f240 1001 	movw	r0, #257	; 0x101
  24:	f7ff fffe 	bl	0 <aec_calloc>
			24: R_ARM_THM_CALL	aec_calloc
  28:	2104      	movs	r1, #4
  2a:	60a8      	str	r0, [r5, #8]
  2c:	f240 1001 	movw	r0, #257	; 0x101
  30:	f7ff fffe 	bl	0 <aec_calloc>
			30: R_ARM_THM_CALL	aec_calloc
  34:	2104      	movs	r1, #4
  36:	60e8      	str	r0, [r5, #12]
  38:	f240 1001 	movw	r0, #257	; 0x101
  3c:	f7ff fffe 	bl	0 <aec_calloc>
			3c: R_ARM_THM_CALL	aec_calloc
  40:	2104      	movs	r1, #4
  42:	6128      	str	r0, [r5, #16]
  44:	f640 600e 	movw	r0, #3598	; 0xe0e
  48:	f7ff fffe 	bl	0 <aec_calloc>
			48: R_ARM_THM_CALL	aec_calloc
  4c:	f105 011c 	add.w	r1, r5, #28
  50:	6168      	str	r0, [r5, #20]
  52:	203f      	movs	r0, #63	; 0x3f
  54:	f7ff fffe 	bl	0 <initPostFilter>
			54: R_ARM_THM_CALL	initPostFilter
  58:	682b      	ldr	r3, [r5, #0]
  5a:	2200      	movs	r2, #0
  5c:	6869      	ldr	r1, [r5, #4]
  5e:	f103 045c 	add.w	r4, r3, #92	; 0x5c
  62:	f101 001c 	add.w	r0, r1, #28
  66:	3708      	adds	r7, #8
  68:	f894 f000 	pld	[r4]
  6c:	f5b7 7ffc 	cmp.w	r7, #504	; 0x1f8
  70:	f844 2c5c 	str.w	r2, [r4, #-92]
  74:	f5c7 7600 	rsb	r6, r7, #512	; 0x200
  78:	f840 2c1c 	str.w	r2, [r0, #-28]
  7c:	f104 0420 	add.w	r4, r4, #32
  80:	f844 2c78 	str.w	r2, [r4, #-120]
  84:	f840 2c18 	str.w	r2, [r0, #-24]
  88:	f844 2c74 	str.w	r2, [r4, #-116]
  8c:	f840 2c14 	str.w	r2, [r0, #-20]
  90:	f844 2c70 	str.w	r2, [r4, #-112]
  94:	f840 2c10 	str.w	r2, [r0, #-16]
  98:	f844 2c6c 	str.w	r2, [r4, #-108]
  9c:	f840 2c0c 	str.w	r2, [r0, #-12]
  a0:	f844 2c68 	str.w	r2, [r4, #-104]
  a4:	f840 2c08 	str.w	r2, [r0, #-8]
  a8:	f844 2c64 	str.w	r2, [r4, #-100]
  ac:	f840 2c04 	str.w	r2, [r0, #-4]
  b0:	f844 2c60 	str.w	r2, [r4, #-96]
  b4:	f840 2b20 	str.w	r2, [r0], #32
  b8:	d1d5      	bne.n	66 <aec_res_init+0x66>
  ba:	f506 70fc 	add.w	r0, r6, #504	; 0x1f8
  be:	2400      	movs	r4, #0
  c0:	eb03 0080 	add.w	r0, r3, r0, lsl #2
  c4:	f501 62fc 	add.w	r2, r1, #2016	; 0x7e0
  c8:	f503 63fc 	add.w	r3, r3, #2016	; 0x7e0
  cc:	f843 4b04 	str.w	r4, [r3], #4
  d0:	4283      	cmp	r3, r0
  d2:	f842 4b04 	str.w	r4, [r2], #4
  d6:	d1f9      	bne.n	cc <aec_res_init+0xcc>
  d8:	f240 4204 	movw	r2, #1028	; 0x404
  dc:	2100      	movs	r1, #0
  de:	68a8      	ldr	r0, [r5, #8]
  e0:	f7ff fffe 	bl	0 <memset>
			e0: R_ARM_THM_CALL	memset
  e4:	68e8      	ldr	r0, [r5, #12]
  e6:	f240 4204 	movw	r2, #1028	; 0x404
  ea:	2100      	movs	r1, #0
  ec:	f7ff fffe 	bl	0 <memset>
			ec: R_ARM_THM_CALL	memset
  f0:	2000      	movs	r0, #0
  f2:	bdf8      	pop	{r3, r4, r5, r6, r7, pc}

000000f4 <aec_res_reset>:
  f4:	b5f8      	push	{r3, r4, r5, r6, r7, lr}
  f6:	2200      	movs	r2, #0
  f8:	6803      	ldr	r3, [r0, #0]
  fa:	4606      	mov	r6, r0
  fc:	2700      	movs	r7, #0
  fe:	6841      	ldr	r1, [r0, #4]
 100:	f103 045c 	add.w	r4, r3, #92	; 0x5c
 104:	f101 051c 	add.w	r5, r1, #28
 108:	3708      	adds	r7, #8
 10a:	f894 f000 	pld	[r4]
 10e:	f5b7 7ffc 	cmp.w	r7, #504	; 0x1f8
 112:	f844 2c5c 	str.w	r2, [r4, #-92]
 116:	f5c7 7000 	rsb	r0, r7, #512	; 0x200
 11a:	f845 2c1c 	str.w	r2, [r5, #-28]
 11e:	f104 0420 	add.w	r4, r4, #32
 122:	f844 2c78 	str.w	r2, [r4, #-120]
 126:	f845 2c18 	str.w	r2, [r5, #-24]
 12a:	f844 2c74 	str.w	r2, [r4, #-116]
 12e:	f845 2c14 	str.w	r2, [r5, #-20]
 132:	f844 2c70 	str.w	r2, [r4, #-112]
 136:	f845 2c10 	str.w	r2, [r5, #-16]
 13a:	f844 2c6c 	str.w	r2, [r4, #-108]
 13e:	f845 2c0c 	str.w	r2, [r5, #-12]
 142:	f844 2c68 	str.w	r2, [r4, #-104]
 146:	f845 2c08 	str.w	r2, [r5, #-8]
 14a:	f844 2c64 	str.w	r2, [r4, #-100]
 14e:	f845 2c04 	str.w	r2, [r5, #-4]
 152:	f844 2c60 	str.w	r2, [r4, #-96]
 156:	f845 2b20 	str.w	r2, [r5], #32
 15a:	d1d5      	bne.n	108 <aec_res_reset+0x14>
 15c:	f500 70fc 	add.w	r0, r0, #504	; 0x1f8
 160:	2400      	movs	r4, #0
 162:	eb03 0580 	add.w	r5, r3, r0, lsl #2
 166:	f501 62fc 	add.w	r2, r1, #2016	; 0x7e0
 16a:	f503 63fc 	add.w	r3, r3, #2016	; 0x7e0
 16e:	f843 4b04 	str.w	r4, [r3], #4
 172:	42ab      	cmp	r3, r5
 174:	f842 4b04 	str.w	r4, [r2], #4
 178:	d1f9      	bne.n	16e <aec_res_reset+0x7a>
 17a:	f240 4204 	movw	r2, #1028	; 0x404
 17e:	2100      	movs	r1, #0
 180:	68b0      	ldr	r0, [r6, #8]
 182:	f7ff fffe 	bl	0 <memset>
			182: R_ARM_THM_CALL	memset
 186:	68f0      	ldr	r0, [r6, #12]
 188:	f240 4204 	movw	r2, #1028	; 0x404
 18c:	2100      	movs	r1, #0
 18e:	f7ff fffe 	bl	0 <memset>
			18e: R_ARM_THM_CALL	memset
 192:	2000      	movs	r0, #0
 194:	bdf8      	pop	{r3, r4, r5, r6, r7, pc}
 196:	bf00      	nop

00000198 <aec_res_destroy>:
 198:	b510      	push	{r4, lr}
 19a:	4604      	mov	r4, r0
 19c:	6800      	ldr	r0, [r0, #0]
 19e:	f7ff fffe 	bl	0 <aec_free>
			19e: R_ARM_THM_CALL	aec_free
 1a2:	6860      	ldr	r0, [r4, #4]
 1a4:	f7ff fffe 	bl	0 <aec_free>
			1a4: R_ARM_THM_CALL	aec_free
 1a8:	68a0      	ldr	r0, [r4, #8]
 1aa:	f7ff fffe 	bl	0 <aec_free>
			1aa: R_ARM_THM_CALL	aec_free
 1ae:	68e0      	ldr	r0, [r4, #12]
 1b0:	f7ff fffe 	bl	0 <aec_free>
			1b0: R_ARM_THM_CALL	aec_free
 1b4:	f104 001c 	add.w	r0, r4, #28
 1b8:	f7ff fffe 	bl	0 <destroyPostFilter>
			1b8: R_ARM_THM_CALL	destroyPostFilter
 1bc:	6920      	ldr	r0, [r4, #16]
 1be:	f7ff fffe 	bl	0 <aec_free>
			1be: R_ARM_THM_CALL	aec_free
 1c2:	6960      	ldr	r0, [r4, #20]
 1c4:	f7ff fffe 	bl	0 <aec_free>
			1c4: R_ARM_THM_CALL	aec_free
 1c8:	2000      	movs	r0, #0
 1ca:	bd10      	pop	{r4, pc}

000001cc <aec_res_proc_compl>:
 1cc:	e92d 4ff0 	stmdb	sp!, {r4, r5, r6, r7, r8, r9, sl, fp, lr}
 1d0:	2400      	movs	r4, #0
 1d2:	ed2d 8b06 	vpush	{d8-d10}
 1d6:	b08b      	sub	sp, #44	; 0x2c
 1d8:	4625      	mov	r5, r4
 1da:	9c1a      	ldr	r4, [sp, #104]	; 0x68
 1dc:	46aa      	mov	sl, r5
 1de:	9107      	str	r1, [sp, #28]
 1e0:	991b      	ldr	r1, [sp, #108]	; 0x6c
 1e2:	9309      	str	r3, [sp, #36]	; 0x24
 1e4:	1f23      	subs	r3, r4, #4
 1e6:	eddf 9a19 	vldr	s19, [pc, #100]	; 24c <aec_res_proc_compl+0x80>
 1ea:	ed9f 9a19 	vldr	s18, [pc, #100]	; 250 <aec_res_proc_compl+0x84>
 1ee:	eddf 8a19 	vldr	s17, [pc, #100]	; 254 <aec_res_proc_compl+0x88>
 1f2:	6909      	ldr	r1, [r1, #16]
 1f4:	9304      	str	r3, [sp, #16]
 1f6:	2309      	movs	r3, #9
 1f8:	4699      	mov	r9, r3
 1fa:	9006      	str	r0, [sp, #24]
 1fc:	9105      	str	r1, [sp, #20]
 1fe:	9208      	str	r2, [sp, #32]
 200:	9501      	str	r5, [sp, #4]
 202:	9b04      	ldr	r3, [sp, #16]
 204:	2000      	movs	r0, #0
 206:	9a01      	ldr	r2, [sp, #4]
 208:	4601      	mov	r1, r0
 20a:	eebf 7a00 	vmov.f32	s14, #240	; 0xf0
 20e:	4606      	mov	r6, r0
 210:	f853 4f04 	ldr.w	r4, [r3, #4]!
 214:	4605      	mov	r5, r0
 216:	eeb0 0a47 	vmov.f32	s0, s14
 21a:	eef0 5a47 	vmov.f32	s11, s14
 21e:	9304      	str	r3, [sp, #16]
 220:	9b1b      	ldr	r3, [sp, #108]	; 0x6c
 222:	edd4 7a00 	vldr	s15, [r4]
 226:	eeb0 6a47 	vmov.f32	s12, s14
 22a:	699b      	ldr	r3, [r3, #24]
 22c:	eef5 7ac0 	vcmpe.f32	s15, #0.0
 230:	eef1 fa10 	vmrs	APSR_nzcv, fpscr
 234:	eb03 0382 	add.w	r3, r3, r2, lsl #2
 238:	bfd8      	it	le
 23a:	eef1 7a67 	vnegle.f32	s15, s15
 23e:	f104 0208 	add.w	r2, r4, #8
 242:	edd3 aa00 	vldr	s21, [r3]
 246:	2301      	movs	r3, #1
 248:	e034      	b.n	2b4 <aec_res_proc_compl+0xe8>
 24a:	bf00      	nop
 24c:	c2000000 	.word	0xc2000000
 250:	3caec33e 	.word	0x3caec33e
 254:	3f7a89e6 	.word	0x3f7a89e6
 258:	00000000 	.word	0x00000000
 25c:	3d800000 	.word	0x3d800000
 260:	eef4 7ae5 	vcmpe.f32	s15, s11
 264:	eef1 fa10 	vmrs	APSR_nzcv, fpscr
 268:	f240 8204 	bls.w	674 <aec_res_proc_compl+0x4a8>
 26c:	eef4 6ae7 	vcmpe.f32	s13, s15
 270:	eef1 fa10 	vmrs	APSR_nzcv, fpscr
 274:	f300 81fe 	bgt.w	674 <aec_res_proc_compl+0x4a8>
 278:	eef4 7ac0 	vcmpe.f32	s15, s0
 27c:	eef1 fa10 	vmrs	APSR_nzcv, fpscr
 280:	f300 81fa 	bgt.w	678 <aec_res_proc_compl+0x4ac>
 284:	eef4 7ac7 	vcmpe.f32	s15, s14
 288:	eef1 fa10 	vmrs	APSR_nzcv, fpscr
 28c:	bfc2      	ittt	gt
 28e:	3101      	addgt	r1, #1
 290:	4618      	movgt	r0, r3
 292:	eeb0 7a67 	vmovgt.f32	s14, s15
 296:	2907      	cmp	r1, #7
 298:	dd05      	ble.n	2a6 <aec_res_proc_compl+0xda>
 29a:	eeb0 0a47 	vmov.f32	s0, s14
 29e:	4605      	mov	r5, r0
 2a0:	2100      	movs	r1, #0
 2a2:	eebf 7a00 	vmov.f32	s14, #240	; 0xf0
 2a6:	3301      	adds	r3, #1
 2a8:	eef0 5a67 	vmov.f32	s11, s15
 2ac:	2b40      	cmp	r3, #64	; 0x40
 2ae:	d01e      	beq.n	2ee <aec_res_proc_compl+0x122>
 2b0:	eef0 7a66 	vmov.f32	s15, s13
 2b4:	ecf2 6a01 	vldmia	r2!, {s13}
 2b8:	eef5 6ac0 	vcmpe.f32	s13, #0.0
 2bc:	eef1 fa10 	vmrs	APSR_nzcv, fpscr
 2c0:	eeb4 6ae7 	vcmpe.f32	s12, s15
 2c4:	bfd8      	it	le
 2c6:	eef1 6a66 	vnegle.f32	s13, s13
 2ca:	eef1 fa10 	vmrs	APSR_nzcv, fpscr
 2ce:	d5c7      	bpl.n	260 <aec_res_proc_compl+0x94>
 2d0:	461d      	mov	r5, r3
 2d2:	461e      	mov	r6, r3
 2d4:	3301      	adds	r3, #1
 2d6:	eebf 7a00 	vmov.f32	s14, #240	; 0xf0
 2da:	2b40      	cmp	r3, #64	; 0x40
 2dc:	eeb0 0a47 	vmov.f32	s0, s14
 2e0:	eeb0 6a67 	vmov.f32	s12, s15
 2e4:	f04f 0100 	mov.w	r1, #0
 2e8:	eef0 5a67 	vmov.f32	s11, s15
 2ec:	d1e0      	bne.n	2b0 <aec_res_proc_compl+0xe4>
 2ee:	1bad      	subs	r5, r5, r6
 2f0:	ee86 0a00 	vdiv.f32	s0, s12, s0
 2f4:	f7ff fffe 	bl	0 <aec_flog>
			2f4: R_ARM_THM_CALL	aec_flog
 2f8:	ee07 5a90 	vmov	s15, r5
 2fc:	ed1f aa2a 	vldr	s20, [pc, #-168]	; 258 <aec_res_proc_compl+0x8c>
 300:	eef8 7ae7 	vcvt.f32.s32	s15, s15
 304:	ee80 0a27 	vdiv.f32	s0, s0, s15
 308:	ee20 0a29 	vmul.f32	s0, s0, s19
 30c:	f7ff fffe 	bl	0 <aec_fexp>
			30c: R_ARM_THM_CALL	aec_fexp
 310:	f104 0380 	add.w	r3, r4, #128	; 0x80
 314:	eeb0 8a40 	vmov.f32	s16, s0
 318:	f504 7480 	add.w	r4, r4, #256	; 0x100
 31c:	ecf3 7a01 	vldmia	r3!, {s15}
 320:	42a3      	cmp	r3, r4
 322:	ee07 aaa7 	vmla.f32	s20, s15, s15
 326:	d1f9      	bne.n	31c <aec_res_proc_compl+0x150>
 328:	eef4 0a00 	vmov.f32	s1, #64	; 0x40
 32c:	eeb0 0a48 	vmov.f32	s0, s16
 330:	f7ff fffe 	bl	0 <aec_fpow>
			330: R_ARM_THM_CALL	aec_fpow
 334:	9b01      	ldr	r3, [sp, #4]
 336:	ed5f 7a37 	vldr	s15, [pc, #-220]	; 25c <aec_res_proc_compl+0x90>
 33a:	011d      	lsls	r5, r3, #4
 33c:	3301      	adds	r3, #1
 33e:	ee2a aa27 	vmul.f32	s20, s20, s15
 342:	f105 0b10 	add.w	fp, r5, #16
 346:	9301      	str	r3, [sp, #4]
 348:	45ab      	cmp	fp, r5
 34a:	ee2a 0a00 	vmul.f32	s0, s20, s0
 34e:	f340 8133 	ble.w	5b8 <aec_res_proc_compl+0x3ec>
 352:	9a1b      	ldr	r2, [sp, #108]	; 0x6c
 354:	f1a9 0308 	sub.w	r3, r9, #8
 358:	ee6a aaaa 	vmul.f32	s21, s21, s21
 35c:	4599      	cmp	r9, r3
 35e:	bfd8      	it	le
 360:	1c6e      	addle	r6, r5, #1
 362:	68d2      	ldr	r2, [r2, #12]
 364:	ee20 7a2a 	vmul.f32	s14, s0, s21
 368:	9202      	str	r2, [sp, #8]
 36a:	9a1b      	ldr	r2, [sp, #108]	; 0x6c
 36c:	6892      	ldr	r2, [r2, #8]
 36e:	9203      	str	r2, [sp, #12]
 370:	f340 80f8 	ble.w	564 <aec_res_proc_compl+0x398>
 374:	9b06      	ldr	r3, [sp, #24]
 376:	9905      	ldr	r1, [sp, #20]
 378:	eb03 040a 	add.w	r4, r3, sl
 37c:	9b07      	ldr	r3, [sp, #28]
 37e:	4451      	add	r1, sl
 380:	eb03 000a 	add.w	r0, r3, sl
 384:	9b02      	ldr	r3, [sp, #8]
 386:	eb03 020a 	add.w	r2, r3, sl
 38a:	9b03      	ldr	r3, [sp, #12]
 38c:	4453      	add	r3, sl
 38e:	edd0 7a00 	vldr	s15, [r0]
 392:	f104 0c20 	add.w	ip, r4, #32
 396:	edd4 5a00 	vldr	s11, [r4]
 39a:	f100 0820 	add.w	r8, r0, #32
 39e:	ed92 6a00 	vldr	s12, [r2]
 3a2:	f102 0720 	add.w	r7, r2, #32
 3a6:	ed93 5a00 	vldr	s10, [r3]
 3aa:	f103 0e20 	add.w	lr, r3, #32
 3ae:	ee67 7aa7 	vmul.f32	s15, s15, s15
 3b2:	3508      	adds	r5, #8
 3b4:	f89c f000 	pld	[ip]
 3b8:	1c6e      	adds	r6, r5, #1
 3ba:	ee66 6a07 	vmul.f32	s13, s12, s14
 3be:	45b1      	cmp	r9, r6
 3c0:	f898 f000 	pld	[r8]
 3c4:	f101 0120 	add.w	r1, r1, #32
 3c8:	ee45 7aa5 	vmla.f32	s15, s11, s11
 3cc:	f897 f000 	pld	[r7]
 3d0:	ee48 6a05 	vmla.f32	s13, s16, s10
 3d4:	f89e f000 	pld	[lr]
 3d8:	ee67 7aa8 	vmul.f32	s15, s15, s17
 3dc:	edc3 6a00 	vstr	s13, [r3]
 3e0:	ed41 6a08 	vstr	s13, [r1, #-32]	; 0xffffffe0
 3e4:	ee46 7a09 	vmla.f32	s15, s12, s18
 3e8:	ed92 6a01 	vldr	s12, [r2, #4]
 3ec:	ee66 6a07 	vmul.f32	s13, s12, s14
 3f0:	edc2 7a00 	vstr	s15, [r2]
 3f4:	edd0 7a01 	vldr	s15, [r0, #4]
 3f8:	edd4 5a01 	vldr	s11, [r4, #4]
 3fc:	ed93 5a01 	vldr	s10, [r3, #4]
 400:	ee67 7aa7 	vmul.f32	s15, s15, s15
 404:	ee48 6a05 	vmla.f32	s13, s16, s10
 408:	ee45 7aa5 	vmla.f32	s15, s11, s11
 40c:	edc3 6a01 	vstr	s13, [r3, #4]
 410:	ed41 6a07 	vstr	s13, [r1, #-28]	; 0xffffffe4
 414:	ee67 7aa8 	vmul.f32	s15, s15, s17
 418:	edd2 5a02 	vldr	s11, [r2, #8]
 41c:	ee46 7a09 	vmla.f32	s15, s12, s18
 420:	ee65 6a87 	vmul.f32	s13, s11, s14
 424:	edc2 7a01 	vstr	s15, [r2, #4]
 428:	edd0 7a02 	vldr	s15, [r0, #8]
 42c:	ed94 6a02 	vldr	s12, [r4, #8]
 430:	ed93 5a02 	vldr	s10, [r3, #8]
 434:	ee67 7aa7 	vmul.f32	s15, s15, s15
 438:	ee48 6a05 	vmla.f32	s13, s16, s10
 43c:	ee46 7a06 	vmla.f32	s15, s12, s12
 440:	edc3 6a02 	vstr	s13, [r3, #8]
 444:	ed41 6a06 	vstr	s13, [r1, #-24]	; 0xffffffe8
 448:	ee67 7aa8 	vmul.f32	s15, s15, s17
 44c:	ed92 6a03 	vldr	s12, [r2, #12]
 450:	ee45 7a89 	vmla.f32	s15, s11, s18
 454:	ee66 6a07 	vmul.f32	s13, s12, s14
 458:	edc2 7a02 	vstr	s15, [r2, #8]
 45c:	edd0 7a03 	vldr	s15, [r0, #12]
 460:	edd4 5a03 	vldr	s11, [r4, #12]
 464:	ed93 5a03 	vldr	s10, [r3, #12]
 468:	ee67 7aa7 	vmul.f32	s15, s15, s15
 46c:	ee48 6a05 	vmla.f32	s13, s16, s10
 470:	ee45 7aa5 	vmla.f32	s15, s11, s11
 474:	edc3 6a03 	vstr	s13, [r3, #12]
 478:	ed41 6a05 	vstr	s13, [r1, #-20]	; 0xffffffec
 47c:	ee67 7aa8 	vmul.f32	s15, s15, s17
 480:	ee46 7a09 	vmla.f32	s15, s12, s18
 484:	edc2 7a03 	vstr	s15, [r2, #12]
 488:	ed94 6a04 	vldr	s12, [r4, #16]
 48c:	edd0 7a04 	vldr	s15, [r0, #16]
 490:	edd2 5a04 	vldr	s11, [r2, #16]
 494:	ed93 5a04 	vldr	s10, [r3, #16]
 498:	ee67 7aa7 	vmul.f32	s15, s15, s15
 49c:	ee65 6a87 	vmul.f32	s13, s11, s14
 4a0:	ee46 7a06 	vmla.f32	s15, s12, s12
 4a4:	ee48 6a05 	vmla.f32	s13, s16, s10
 4a8:	ee67 7aa8 	vmul.f32	s15, s15, s17
 4ac:	edc3 6a04 	vstr	s13, [r3, #16]
 4b0:	ed41 6a04 	vstr	s13, [r1, #-16]
 4b4:	ed92 6a05 	vldr	s12, [r2, #20]
 4b8:	ee45 7a89 	vmla.f32	s15, s11, s18
 4bc:	ee66 6a07 	vmul.f32	s13, s12, s14
 4c0:	edc2 7a04 	vstr	s15, [r2, #16]
 4c4:	edd0 7a05 	vldr	s15, [r0, #20]
 4c8:	edd4 5a05 	vldr	s11, [r4, #20]
 4cc:	ed93 5a05 	vldr	s10, [r3, #20]
 4d0:	ee67 7aa7 	vmul.f32	s15, s15, s15
 4d4:	ee48 6a05 	vmla.f32	s13, s16, s10
 4d8:	ee45 7aa5 	vmla.f32	s15, s11, s11
 4dc:	edc3 6a05 	vstr	s13, [r3, #20]
 4e0:	ed41 6a03 	vstr	s13, [r1, #-12]
 4e4:	ee67 7aa8 	vmul.f32	s15, s15, s17
 4e8:	edd2 5a06 	vldr	s11, [r2, #24]
 4ec:	ee46 7a09 	vmla.f32	s15, s12, s18
 4f0:	ee65 6a87 	vmul.f32	s13, s11, s14
 4f4:	edc2 7a05 	vstr	s15, [r2, #20]
 4f8:	edd0 7a06 	vldr	s15, [r0, #24]
 4fc:	ed94 6a06 	vldr	s12, [r4, #24]
 500:	ed93 5a06 	vldr	s10, [r3, #24]
 504:	ee67 7aa7 	vmul.f32	s15, s15, s15
 508:	ee48 6a05 	vmla.f32	s13, s16, s10
 50c:	ee46 7a06 	vmla.f32	s15, s12, s12
 510:	edc3 6a06 	vstr	s13, [r3, #24]
 514:	ed41 6a02 	vstr	s13, [r1, #-8]
 518:	ee67 7aa8 	vmul.f32	s15, s15, s17
 51c:	ed92 6a07 	vldr	s12, [r2, #28]
 520:	ee45 7a89 	vmla.f32	s15, s11, s18
 524:	ee66 6a07 	vmul.f32	s13, s12, s14
 528:	edc2 7a06 	vstr	s15, [r2, #24]
 52c:	edd0 7a07 	vldr	s15, [r0, #28]
 530:	4640      	mov	r0, r8
 532:	edd4 5a07 	vldr	s11, [r4, #28]
 536:	4664      	mov	r4, ip
 538:	ed93 5a07 	vldr	s10, [r3, #28]
 53c:	ee67 7aa7 	vmul.f32	s15, s15, s15
 540:	ee48 6a05 	vmla.f32	s13, s16, s10
 544:	ee45 7aa5 	vmla.f32	s15, s11, s11
 548:	edc3 6a07 	vstr	s13, [r3, #28]
 54c:	4673      	mov	r3, lr
 54e:	ed41 6a01 	vstr	s13, [r1, #-4]
 552:	ee67 7aa8 	vmul.f32	s15, s15, s17
 556:	ee46 7a09 	vmla.f32	s15, s12, s18
 55a:	edc2 7a07 	vstr	s15, [r2, #28]
 55e:	463a      	mov	r2, r7
 560:	f73f af15 	bgt.w	38e <aec_res_proc_compl+0x1c2>
 564:	9b03      	ldr	r3, [sp, #12]
 566:	00ad      	lsls	r5, r5, #2
 568:	9906      	ldr	r1, [sp, #24]
 56a:	9c05      	ldr	r4, [sp, #20]
 56c:	442b      	add	r3, r5
 56e:	1948      	adds	r0, r1, r5
 570:	461a      	mov	r2, r3
 572:	9907      	ldr	r1, [sp, #28]
 574:	9b02      	ldr	r3, [sp, #8]
 576:	4429      	add	r1, r5
 578:	442b      	add	r3, r5
 57a:	4425      	add	r5, r4
 57c:	ecf1 7a01 	vldmia	r1!, {s15}
 580:	455e      	cmp	r6, fp
 582:	ecf0 5a01 	vldmia	r0!, {s11}
 586:	f106 0601 	add.w	r6, r6, #1
 58a:	ed93 6a00 	vldr	s12, [r3]
 58e:	ed92 5a00 	vldr	s10, [r2]
 592:	ee67 7aa7 	vmul.f32	s15, s15, s15
 596:	ee66 6a07 	vmul.f32	s13, s12, s14
 59a:	ee45 7aa5 	vmla.f32	s15, s11, s11
 59e:	ee48 6a05 	vmla.f32	s13, s16, s10
 5a2:	ee67 7aa8 	vmul.f32	s15, s15, s17
 5a6:	ece2 6a01 	vstmia	r2!, {s13}
 5aa:	ece5 6a01 	vstmia	r5!, {s13}
 5ae:	ee46 7a09 	vmla.f32	s15, s12, s18
 5b2:	ece3 7a01 	vstmia	r3!, {s15}
 5b6:	dbe1      	blt.n	57c <aec_res_proc_compl+0x3b0>
 5b8:	9b01      	ldr	r3, [sp, #4]
 5ba:	f109 0910 	add.w	r9, r9, #16
 5be:	f10a 0a40 	add.w	sl, sl, #64	; 0x40
 5c2:	2b10      	cmp	r3, #16
 5c4:	f47f ae1d 	bne.w	202 <aec_res_proc_compl+0x36>
 5c8:	9e05      	ldr	r6, [sp, #20]
 5ca:	991b      	ldr	r1, [sp, #108]	; 0x6c
 5cc:	9c1b      	ldr	r4, [sp, #108]	; 0x6c
 5ce:	f8d6 23fc 	ldr.w	r2, [r6, #1020]	; 0x3fc
 5d2:	f506 6380 	add.w	r3, r6, #1024	; 0x400
 5d6:	f101 051c 	add.w	r5, r1, #28
 5da:	6948      	ldr	r0, [r1, #20]
 5dc:	6924      	ldr	r4, [r4, #16]
 5de:	4629      	mov	r1, r5
 5e0:	601a      	str	r2, [r3, #0]
 5e2:	f7ff fffe 	bl	0 <pf_initScratch>
			5e2: R_ARM_THM_CALL	pf_initScratch
 5e6:	9f08      	ldr	r7, [sp, #32]
 5e8:	462b      	mov	r3, r5
 5ea:	f8dd 8024 	ldr.w	r8, [sp, #36]	; 0x24
 5ee:	f240 1201 	movw	r2, #257	; 0x101
 5f2:	4638      	mov	r0, r7
 5f4:	4641      	mov	r1, r8
 5f6:	f7ff fffe 	bl	0 <pf_getSigModule>
			5f6: R_ARM_THM_CALL	pf_getSigModule
 5fa:	4629      	mov	r1, r5
 5fc:	4630      	mov	r0, r6
 5fe:	f7ff fffe 	bl	0 <pf_setLambda>
			5fe: R_ARM_THM_CALL	pf_setLambda
 602:	f508 6600 	add.w	r6, r8, #2048	; 0x800
 606:	4629      	mov	r1, r5
 608:	4620      	mov	r0, r4
 60a:	f507 6500 	add.w	r5, r7, #2048	; 0x800
 60e:	f7ff fffe 	bl	0 <pf_getSpectralGain>
			60e: R_ARM_THM_CALL	pf_getSpectralGain
 612:	463a      	mov	r2, r7
 614:	1d20      	adds	r0, r4, #4
 616:	4637      	mov	r7, r6
 618:	462c      	mov	r4, r5
 61a:	2101      	movs	r1, #1
 61c:	f240 1e01 	movw	lr, #257	; 0x101
 620:	f04f 0c00 	mov.w	ip, #0
 624:	4643      	mov	r3, r8
 626:	f842 cb04 	str.w	ip, [r2], #4
 62a:	f843 cb04 	str.w	ip, [r3], #4
 62e:	ecf0 7a01 	vldmia	r0!, {s15}
 632:	3101      	adds	r1, #1
 634:	ed92 7a00 	vldr	s14, [r2]
 638:	4571      	cmp	r1, lr
 63a:	ee27 7a27 	vmul.f32	s14, s14, s15
 63e:	eca2 7a01 	vstmia	r2!, {s14}
 642:	ed34 7a01 	vldmdb	r4!, {s14}
 646:	ee27 7a87 	vmul.f32	s14, s15, s14
 64a:	ed25 7a01 	vstmdb	r5!, {s14}
 64e:	ed93 7a00 	vldr	s14, [r3]
 652:	ee27 7a27 	vmul.f32	s14, s14, s15
 656:	eca3 7a01 	vstmia	r3!, {s14}
 65a:	ed36 7a01 	vldmdb	r6!, {s14}
 65e:	ee67 7a87 	vmul.f32	s15, s15, s14
 662:	ed67 7a01 	vstmdb	r7!, {s15}
 666:	d1e2      	bne.n	62e <aec_res_proc_compl+0x462>
 668:	2000      	movs	r0, #0
 66a:	b00b      	add	sp, #44	; 0x2c
 66c:	ecbd 8b06 	vpop	{d8-d10}
 670:	e8bd 8ff0 	ldmia.w	sp!, {r4, r5, r6, r7, r8, r9, sl, fp, pc}
 674:	3101      	adds	r1, #1
 676:	e616      	b.n	2a6 <aec_res_proc_compl+0xda>
 678:	461d      	mov	r5, r3
 67a:	eeb0 0a67 	vmov.f32	s0, s15
 67e:	2100      	movs	r1, #0
 680:	eebf 7a00 	vmov.f32	s14, #240	; 0xf0
 684:	e60f      	b.n	2a6 <aec_res_proc_compl+0xda>
 686:	bf00      	nop

00000688 <postFiltrationCompl>:
 688:	e92d 43f8 	stmdb	sp!, {r3, r4, r5, r6, r7, r8, r9, lr}
 68c:	4605      	mov	r5, r0
 68e:	9a09      	ldr	r2, [sp, #36]	; 0x24
 690:	460c      	mov	r4, r1
 692:	461f      	mov	r7, r3
 694:	f240 1801 	movw	r8, #257	; 0x101
 698:	9908      	ldr	r1, [sp, #32]
 69a:	f04f 0900 	mov.w	r9, #0
 69e:	6916      	ldr	r6, [r2, #16]
 6a0:	6950      	ldr	r0, [r2, #20]
 6a2:	f7ff fffe 	bl	0 <pf_initScratch>
			6a2: R_ARM_THM_CALL	pf_initScratch
 6a6:	9b08      	ldr	r3, [sp, #32]
 6a8:	f240 1201 	movw	r2, #257	; 0x101
 6ac:	4621      	mov	r1, r4
 6ae:	4628      	mov	r0, r5
 6b0:	f7ff fffe 	bl	0 <pf_getSigModule>
			6b0: R_ARM_THM_CALL	pf_getSigModule
 6b4:	4638      	mov	r0, r7
 6b6:	9908      	ldr	r1, [sp, #32]
 6b8:	f7ff fffe 	bl	0 <pf_setLambda>
			6b8: R_ARM_THM_CALL	pf_setLambda
 6bc:	4630      	mov	r0, r6
 6be:	9908      	ldr	r1, [sp, #32]
 6c0:	f7ff fffe 	bl	0 <pf_getSpectralGain>
			6c0: R_ARM_THM_CALL	pf_getSpectralGain
 6c4:	f505 6700 	add.w	r7, r5, #2048	; 0x800
 6c8:	f504 6e00 	add.w	lr, r4, #2048	; 0x800
 6cc:	1d32      	adds	r2, r6, #4
 6ce:	46f4      	mov	ip, lr
 6d0:	463e      	mov	r6, r7
 6d2:	2301      	movs	r3, #1
 6d4:	4628      	mov	r0, r5
 6d6:	4621      	mov	r1, r4
 6d8:	f840 9b04 	str.w	r9, [r0], #4
 6dc:	f841 9b04 	str.w	r9, [r1], #4
 6e0:	ecf2 7a01 	vldmia	r2!, {s15}
 6e4:	3301      	adds	r3, #1
 6e6:	ed90 7a00 	vldr	s14, [r0]
 6ea:	4543      	cmp	r3, r8
 6ec:	ee27 7a27 	vmul.f32	s14, s14, s15
 6f0:	eca0 7a01 	vstmia	r0!, {s14}
 6f4:	ed36 7a01 	vldmdb	r6!, {s14}
 6f8:	ee27 7a27 	vmul.f32	s14, s14, s15
 6fc:	ed27 7a01 	vstmdb	r7!, {s14}
 700:	ed91 7a00 	vldr	s14, [r1]
 704:	ee27 7a27 	vmul.f32	s14, s14, s15
 708:	eca1 7a01 	vstmia	r1!, {s14}
 70c:	ed3e 7a01 	vldmdb	lr!, {s14}
 710:	ee67 7a27 	vmul.f32	s15, s14, s15
 714:	ed6c 7a01 	vstmdb	ip!, {s15}
 718:	d1e2      	bne.n	6e0 <postFiltrationCompl+0x58>
 71a:	e8bd 83f8 	ldmia.w	sp!, {r3, r4, r5, r6, r7, r8, r9, pc}
 71e:	bf00      	nop

00000720 <getDecayFreqPwr>:
 720:	ed90 7a00 	vldr	s14, [r0]
 724:	e92d 43f8 	stmdb	sp!, {r3, r4, r5, r6, r7, r8, r9, lr}
 728:	4607      	mov	r7, r0
 72a:	ed2d 8b04 	vpush	{d8-d9}
 72e:	460d      	mov	r5, r1
 730:	ea4f 0ee1 	mov.w	lr, r1, asr #3
 734:	eeb5 7ac0 	vcmpe.f32	s14, #0.0
 738:	eef1 fa10 	vmrs	APSR_nzcv, fpscr
 73c:	bfd8      	it	le
 73e:	eeb1 7a47 	vnegle.f32	s14, s14
 742:	2901      	cmp	r1, #1
 744:	eeb0 9a40 	vmov.f32	s18, s0
 748:	ee08 2a10 	vmov	s16, r2
 74c:	eef0 8a60 	vmov.f32	s17, s1
 750:	9e0c      	ldr	r6, [sp, #48]	; 0x30
 752:	9c0d      	ldr	r4, [sp, #52]	; 0x34
 754:	f340 80d3 	ble.w	8fe <getDecayFreqPwr+0x1de>
 758:	eeff 7a00 	vmov.f32	s15, #240	; 0xf0
 75c:	2000      	movs	r0, #0
 75e:	4601      	mov	r1, r0
 760:	eeb0 5a67 	vmov.f32	s10, s15
 764:	eef0 5a67 	vmov.f32	s11, s15
 768:	f107 0208 	add.w	r2, r7, #8
 76c:	eeb0 6a67 	vmov.f32	s12, s15
 770:	2301      	movs	r3, #1
 772:	ecf2 6a01 	vldmia	r2!, {s13}
 776:	eef5 6ac0 	vcmpe.f32	s13, #0.0
 77a:	eef1 fa10 	vmrs	APSR_nzcv, fpscr
 77e:	eeb4 6ac7 	vcmpe.f32	s12, s14
 782:	bfd8      	it	le
 784:	eef1 6a66 	vnegle.f32	s13, s13
 788:	eef1 fa10 	vmrs	APSR_nzcv, fpscr
 78c:	d425      	bmi.n	7da <getDecayFreqPwr+0xba>
 78e:	eeb4 7ae5 	vcmpe.f32	s14, s11
 792:	eef1 fa10 	vmrs	APSR_nzcv, fpscr
 796:	f240 809b 	bls.w	8d0 <getDecayFreqPwr+0x1b0>
 79a:	eef4 6ac7 	vcmpe.f32	s13, s14
 79e:	eef1 fa10 	vmrs	APSR_nzcv, fpscr
 7a2:	f300 8095 	bgt.w	8d0 <getDecayFreqPwr+0x1b0>
 7a6:	eeb4 7ac5 	vcmpe.f32	s14, s10
 7aa:	eef1 fa10 	vmrs	APSR_nzcv, fpscr
 7ae:	f300 8091 	bgt.w	8d4 <getDecayFreqPwr+0x1b4>
 7b2:	eeb4 7ae7 	vcmpe.f32	s14, s15
 7b6:	eef1 fa10 	vmrs	APSR_nzcv, fpscr
 7ba:	bfc2      	ittt	gt
 7bc:	3101      	addgt	r1, #1
 7be:	4618      	movgt	r0, r3
 7c0:	eef0 7a47 	vmovgt.f32	s15, s14
 7c4:	458e      	cmp	lr, r1
 7c6:	f340 808c 	ble.w	8e2 <getDecayFreqPwr+0x1c2>
 7ca:	3301      	adds	r3, #1
 7cc:	eef0 5a47 	vmov.f32	s11, s14
 7d0:	42ab      	cmp	r3, r5
 7d2:	d011      	beq.n	7f8 <getDecayFreqPwr+0xd8>
 7d4:	eeb0 7a66 	vmov.f32	s14, s13
 7d8:	e7cb      	b.n	772 <getDecayFreqPwr+0x52>
 7da:	4698      	mov	r8, r3
 7dc:	4699      	mov	r9, r3
 7de:	3301      	adds	r3, #1
 7e0:	eeff 7a00 	vmov.f32	s15, #240	; 0xf0
 7e4:	42ab      	cmp	r3, r5
 7e6:	eeb0 5a67 	vmov.f32	s10, s15
 7ea:	eeb0 6a47 	vmov.f32	s12, s14
 7ee:	f04f 0100 	mov.w	r1, #0
 7f2:	eef0 5a47 	vmov.f32	s11, s14
 7f6:	d1ed      	bne.n	7d4 <getDecayFreqPwr+0xb4>
 7f8:	ee86 0a05 	vdiv.f32	s0, s12, s10
 7fc:	ebc9 0808 	rsb	r8, r9, r8
 800:	f7ff fffe 	bl	0 <aec_flog>
			800: R_ARM_THM_CALL	aec_flog
 804:	ee07 8a90 	vmov	s15, r8
 808:	eef8 7ae7 	vcvt.f32.s32	s15, s15
 80c:	ee80 0a27 	vdiv.f32	s0, s0, s15
 810:	ee29 0a40 	vnmul.f32	s0, s18, s0
 814:	f7ff fffe 	bl	0 <aec_fexp>
			814: R_ARM_THM_CALL	aec_fexp
 818:	1069      	asrs	r1, r5, #1
 81a:	ed86 0a00 	vstr	s0, [r6]
 81e:	428d      	cmp	r5, r1
 820:	dd6a      	ble.n	8f8 <getDecayFreqPwr+0x1d8>
 822:	2307      	movs	r3, #7
 824:	1fee      	subs	r6, r5, #7
 826:	f2c8 0300 	movt	r3, #32768	; 0x8000
 82a:	1c4a      	adds	r2, r1, #1
 82c:	429d      	cmp	r5, r3
 82e:	bfa8      	it	ge
 830:	4296      	cmpge	r6, r2
 832:	dd5d      	ble.n	8f0 <getDecayFreqPwr+0x1d0>
 834:	f101 0319 	add.w	r3, r1, #25
 838:	eddf 7a32 	vldr	s15, [pc, #200]	; 904 <getDecayFreqPwr+0x1e4>
 83c:	eb07 0383 	add.w	r3, r7, r3, lsl #2
 840:	4608      	mov	r0, r1
 842:	ed13 7a19 	vldr	s14, [r3, #-100]	; 0xffffff9c
 846:	3008      	adds	r0, #8
 848:	ed13 4a18 	vldr	s8, [r3, #-96]	; 0xffffffa0
 84c:	1c42      	adds	r2, r0, #1
 84e:	ed53 4a17 	vldr	s9, [r3, #-92]	; 0xffffffa4
 852:	4296      	cmp	r6, r2
 854:	ed13 5a16 	vldr	s10, [r3, #-88]	; 0xffffffa8
 858:	ee47 7a07 	vmla.f32	s15, s14, s14
 85c:	ed53 5a15 	vldr	s11, [r3, #-84]	; 0xffffffac
 860:	ed13 6a14 	vldr	s12, [r3, #-80]	; 0xffffffb0
 864:	ed53 6a13 	vldr	s13, [r3, #-76]	; 0xffffffb4
 868:	ed13 7a12 	vldr	s14, [r3, #-72]	; 0xffffffb8
 86c:	f893 f000 	pld	[r3]
 870:	f103 0320 	add.w	r3, r3, #32
 874:	ee44 7a04 	vmla.f32	s15, s8, s8
 878:	ee44 7aa4 	vmla.f32	s15, s9, s9
 87c:	ee45 7a05 	vmla.f32	s15, s10, s10
 880:	ee45 7aa5 	vmla.f32	s15, s11, s11
 884:	ee46 7a06 	vmla.f32	s15, s12, s12
 888:	ee46 7aa6 	vmla.f32	s15, s13, s13
 88c:	ee47 7a07 	vmla.f32	s15, s14, s14
 890:	dcd7      	bgt.n	842 <getDecayFreqPwr+0x122>
 892:	eb07 0080 	add.w	r0, r7, r0, lsl #2
 896:	ecb0 7a01 	vldmia	r0!, {s14}
 89a:	4295      	cmp	r5, r2
 89c:	f102 0201 	add.w	r2, r2, #1
 8a0:	ee47 7a07 	vmla.f32	s15, s14, s14
 8a4:	dcf7      	bgt.n	896 <getDecayFreqPwr+0x176>
 8a6:	eeb8 8ac8 	vcvt.f32.s32	s16, s16
 8aa:	1a6d      	subs	r5, r5, r1
 8ac:	ee07 5a10 	vmov	s14, r5
 8b0:	eef8 0ac7 	vcvt.f32.s32	s1, s14
 8b4:	ee87 8a88 	vdiv.f32	s16, s15, s16
 8b8:	ee68 0aa0 	vmul.f32	s1, s17, s1
 8bc:	f7ff fffe 	bl	0 <aec_fpow>
			8bc: R_ARM_THM_CALL	aec_fpow
 8c0:	ee28 0a00 	vmul.f32	s0, s16, s0
 8c4:	ecbd 8b04 	vpop	{d8-d9}
 8c8:	ed84 0a00 	vstr	s0, [r4]
 8cc:	e8bd 83f8 	ldmia.w	sp!, {r3, r4, r5, r6, r7, r8, r9, pc}
 8d0:	3101      	adds	r1, #1
 8d2:	e77a      	b.n	7ca <getDecayFreqPwr+0xaa>
 8d4:	4698      	mov	r8, r3
 8d6:	eeb0 5a47 	vmov.f32	s10, s14
 8da:	2100      	movs	r1, #0
 8dc:	eeff 7a00 	vmov.f32	s15, #240	; 0xf0
 8e0:	e773      	b.n	7ca <getDecayFreqPwr+0xaa>
 8e2:	eeb0 5a67 	vmov.f32	s10, s15
 8e6:	4680      	mov	r8, r0
 8e8:	2100      	movs	r1, #0
 8ea:	eeff 7a00 	vmov.f32	s15, #240	; 0xf0
 8ee:	e76c      	b.n	7ca <getDecayFreqPwr+0xaa>
 8f0:	eddf 7a04 	vldr	s15, [pc, #16]	; 904 <getDecayFreqPwr+0x1e4>
 8f4:	4608      	mov	r0, r1
 8f6:	e7cc      	b.n	892 <getDecayFreqPwr+0x172>
 8f8:	eddf 7a02 	vldr	s15, [pc, #8]	; 904 <getDecayFreqPwr+0x1e4>
 8fc:	e7d3      	b.n	8a6 <getDecayFreqPwr+0x186>
 8fe:	eeb7 0a00 	vmov.f32	s0, #112	; 0x70
 902:	e77b      	b.n	7fc <getDecayFreqPwr+0xdc>
 904:	00000000 	.word	0x00000000

00000908 <getImpRespDecay>:
 908:	edd0 7a00 	vldr	s15, [r0]
 90c:	b5f8      	push	{r3, r4, r5, r6, r7, lr}
 90e:	10ce      	asrs	r6, r1, #3
 910:	eef5 7ac0 	vcmpe.f32	s15, #0.0
 914:	eef1 fa10 	vmrs	APSR_nzcv, fpscr
 918:	bfd8      	it	le
 91a:	eef1 7a67 	vnegle.f32	s15, s15
 91e:	2901      	cmp	r1, #1
 920:	dd66      	ble.n	9f0 <getImpRespDecay+0xe8>
 922:	eebf 6a00 	vmov.f32	s12, #240	; 0xf0
 926:	2200      	movs	r2, #0
 928:	3008      	adds	r0, #8
 92a:	4617      	mov	r7, r2
 92c:	eef0 5a46 	vmov.f32	s11, s12
 930:	2301      	movs	r3, #1
 932:	eeb0 0a46 	vmov.f32	s0, s12
 936:	eef0 6a46 	vmov.f32	s13, s12
 93a:	ecb0 7a01 	vldmia	r0!, {s14}
 93e:	eeb5 7ac0 	vcmpe.f32	s14, #0.0
 942:	eef1 fa10 	vmrs	APSR_nzcv, fpscr
 946:	eef4 6ae7 	vcmpe.f32	s13, s15
 94a:	bfd8      	it	le
 94c:	eeb1 7a47 	vnegle.f32	s14, s14
 950:	eef1 fa10 	vmrs	APSR_nzcv, fpscr
 954:	d421      	bmi.n	99a <getImpRespDecay+0x92>
 956:	eeb4 6ae7 	vcmpe.f32	s12, s15
 95a:	eef1 fa10 	vmrs	APSR_nzcv, fpscr
 95e:	da37      	bge.n	9d0 <getImpRespDecay+0xc8>
 960:	eeb4 7ae7 	vcmpe.f32	s14, s15
 964:	eef1 fa10 	vmrs	APSR_nzcv, fpscr
 968:	dc32      	bgt.n	9d0 <getImpRespDecay+0xc8>
 96a:	eeb4 0ae7 	vcmpe.f32	s0, s15
 96e:	eef1 fa10 	vmrs	APSR_nzcv, fpscr
 972:	d42f      	bmi.n	9d4 <getImpRespDecay+0xcc>
 974:	eef4 5ae7 	vcmpe.f32	s11, s15
 978:	eef1 fa10 	vmrs	APSR_nzcv, fpscr
 97c:	bf42      	ittt	mi
 97e:	3201      	addmi	r2, #1
 980:	461f      	movmi	r7, r3
 982:	eef0 5a67 	vmovmi.f32	s11, s15
 986:	42b2      	cmp	r2, r6
 988:	da2b      	bge.n	9e2 <getImpRespDecay+0xda>
 98a:	3301      	adds	r3, #1
 98c:	eeb0 6a67 	vmov.f32	s12, s15
 990:	428b      	cmp	r3, r1
 992:	d011      	beq.n	9b8 <getImpRespDecay+0xb0>
 994:	eef0 7a47 	vmov.f32	s15, s14
 998:	e7cf      	b.n	93a <getImpRespDecay+0x32>
 99a:	461c      	mov	r4, r3
 99c:	461d      	mov	r5, r3
 99e:	3301      	adds	r3, #1
 9a0:	eeff 5a00 	vmov.f32	s11, #240	; 0xf0
 9a4:	428b      	cmp	r3, r1
 9a6:	eeb0 0a65 	vmov.f32	s0, s11
 9aa:	eef0 6a67 	vmov.f32	s13, s15
 9ae:	f04f 0200 	mov.w	r2, #0
 9b2:	eeb0 6a67 	vmov.f32	s12, s15
 9b6:	d1ed      	bne.n	994 <getImpRespDecay+0x8c>
 9b8:	ee86 0a80 	vdiv.f32	s0, s13, s0
 9bc:	1b64      	subs	r4, r4, r5
 9be:	f7ff fffe 	bl	0 <aec_flog>
			9be: R_ARM_THM_CALL	aec_flog
 9c2:	ee07 4a90 	vmov	s15, r4
 9c6:	eef8 7ae7 	vcvt.f32.s32	s15, s15
 9ca:	ee80 0a27 	vdiv.f32	s0, s0, s15
 9ce:	bdf8      	pop	{r3, r4, r5, r6, r7, pc}
 9d0:	3201      	adds	r2, #1
 9d2:	e7da      	b.n	98a <getImpRespDecay+0x82>
 9d4:	461c      	mov	r4, r3
 9d6:	eeb0 0a67 	vmov.f32	s0, s15
 9da:	2200      	movs	r2, #0
 9dc:	eeff 5a00 	vmov.f32	s11, #240	; 0xf0
 9e0:	e7d3      	b.n	98a <getImpRespDecay+0x82>
 9e2:	eeb0 0a65 	vmov.f32	s0, s11
 9e6:	463c      	mov	r4, r7
 9e8:	2200      	movs	r2, #0
 9ea:	eeff 5a00 	vmov.f32	s11, #240	; 0xf0
 9ee:	e7cc      	b.n	98a <getImpRespDecay+0x82>
 9f0:	eeb7 0a00 	vmov.f32	s0, #112	; 0x70
 9f4:	e7e2      	b.n	9bc <getImpRespDecay+0xb4>
 9f6:	bf00      	nop

000009f8 <getInitialPowerPerFreq>:
 9f8:	b570      	push	{r4, r5, r6, lr}
 9fa:	104e      	asrs	r6, r1, #1
 9fc:	ed2d 8b02 	vpush	{d8}
 a00:	42b1      	cmp	r1, r6
 a02:	eef0 3a40 	vmov.f32	s7, s0
 a06:	ee08 2a10 	vmov	s16, r2
 a0a:	dd59      	ble.n	ac0 <getInitialPowerPerFreq+0xc8>
 a0c:	2307      	movs	r3, #7
 a0e:	1fcd      	subs	r5, r1, #7
 a10:	f2c8 0300 	movt	r3, #32768	; 0x8000
 a14:	1c72      	adds	r2, r6, #1
 a16:	4299      	cmp	r1, r3
 a18:	bfa8      	it	ge
 a1a:	4295      	cmpge	r5, r2
 a1c:	dd4c      	ble.n	ab8 <getInitialPowerPerFreq+0xc0>
 a1e:	f106 0319 	add.w	r3, r6, #25
 a22:	eddf 7a29 	vldr	s15, [pc, #164]	; ac8 <getInitialPowerPerFreq+0xd0>
 a26:	eb00 0383 	add.w	r3, r0, r3, lsl #2
 a2a:	4634      	mov	r4, r6
 a2c:	ed13 7a19 	vldr	s14, [r3, #-100]	; 0xffffff9c
 a30:	3408      	adds	r4, #8
 a32:	ed13 4a18 	vldr	s8, [r3, #-96]	; 0xffffffa0
 a36:	1c62      	adds	r2, r4, #1
 a38:	ed53 4a17 	vldr	s9, [r3, #-92]	; 0xffffffa4
 a3c:	4295      	cmp	r5, r2
 a3e:	ed13 5a16 	vldr	s10, [r3, #-88]	; 0xffffffa8
 a42:	ee47 7a07 	vmla.f32	s15, s14, s14
 a46:	ed53 5a15 	vldr	s11, [r3, #-84]	; 0xffffffac
 a4a:	ed13 6a14 	vldr	s12, [r3, #-80]	; 0xffffffb0
 a4e:	ed53 6a13 	vldr	s13, [r3, #-76]	; 0xffffffb4
 a52:	ed13 7a12 	vldr	s14, [r3, #-72]	; 0xffffffb8
 a56:	f893 f000 	pld	[r3]
 a5a:	f103 0320 	add.w	r3, r3, #32
 a5e:	ee44 7a04 	vmla.f32	s15, s8, s8
 a62:	ee44 7aa4 	vmla.f32	s15, s9, s9
 a66:	ee45 7a05 	vmla.f32	s15, s10, s10
 a6a:	ee45 7aa5 	vmla.f32	s15, s11, s11
 a6e:	ee46 7a06 	vmla.f32	s15, s12, s12
 a72:	ee46 7aa6 	vmla.f32	s15, s13, s13
 a76:	ee47 7a07 	vmla.f32	s15, s14, s14
 a7a:	dcd7      	bgt.n	a2c <getInitialPowerPerFreq+0x34>
 a7c:	eb00 0084 	add.w	r0, r0, r4, lsl #2
 a80:	ecb0 7a01 	vldmia	r0!, {s14}
 a84:	428a      	cmp	r2, r1
 a86:	f102 0201 	add.w	r2, r2, #1
 a8a:	ee47 7a07 	vmla.f32	s15, s14, s14
 a8e:	dbf7      	blt.n	a80 <getInitialPowerPerFreq+0x88>
 a90:	eeb8 8ac8 	vcvt.f32.s32	s16, s16
 a94:	1b89      	subs	r1, r1, r6
 a96:	eeb0 0a60 	vmov.f32	s0, s1
 a9a:	ee07 1a10 	vmov	s14, r1
 a9e:	eef8 0ac7 	vcvt.f32.s32	s1, s14
 aa2:	ee87 8a88 	vdiv.f32	s16, s15, s16
 aa6:	ee60 0aa3 	vmul.f32	s1, s1, s7
 aaa:	f7ff fffe 	bl	0 <aec_fpow>
			aaa: R_ARM_THM_CALL	aec_fpow
 aae:	ee28 0a00 	vmul.f32	s0, s16, s0
 ab2:	ecbd 8b02 	vpop	{d8}
 ab6:	bd70      	pop	{r4, r5, r6, pc}
 ab8:	eddf 7a03 	vldr	s15, [pc, #12]	; ac8 <getInitialPowerPerFreq+0xd0>
 abc:	4634      	mov	r4, r6
 abe:	e7dd      	b.n	a7c <getInitialPowerPerFreq+0x84>
 ac0:	eddf 7a01 	vldr	s15, [pc, #4]	; ac8 <getInitialPowerPerFreq+0xd0>
 ac4:	e7e4      	b.n	a90 <getInitialPowerPerFreq+0x98>
 ac6:	bf00      	nop
 ac8:	00000000 	.word	0x00000000

double_talk_detector.o:     file format elf32-littlearm
rw-rw-r-- 1016/1016   3912 Dec 10 16:27 2015 double_talk_detector.o
architecture: arm, flags 0x00000011:
HAS_RELOC, HAS_SYMS
start address 0x00000000
private flags = 5000000: [Version5 EABI]

Sections:
Idx Name          Size      VMA       LMA       File off  Algn
  0 .text         00000808  00000000  00000000  00000034  2**2
                  CONTENTS, ALLOC, LOAD, RELOC, READONLY, CODE
  1 .data         00000010  00000000  00000000  0000083c  2**2
                  CONTENTS, ALLOC, LOAD, DATA
  2 .bss          00000000  00000000  00000000  0000084c  2**0
                  ALLOC
  3 .rodata       0000000c  00000000  00000000  0000084c  2**2
                  CONTENTS, ALLOC, LOAD, READONLY, DATA
  4 .rodata.str1.4 00000018  00000000  00000000  00000858  2**2
                  CONTENTS, ALLOC, LOAD, READONLY, DATA
  5 .comment      00000037  00000000  00000000  00000870  2**0
                  CONTENTS, READONLY
  6 .note.GNU-stack 00000000  00000000  00000000  000008a7  2**0
                  CONTENTS, READONLY
  7 .ARM.attributes 00000035  00000000  00000000  000008a7  2**0
                  CONTENTS, READONLY
SYMBOL TABLE:
00000000 l    df *ABS*	00000000 double_talk_detector.c
00000000 l    d  .text	00000000 .text
